Component: ARM Compiler 5.06 update 4 (build 422) Tool: armlink [4d35d2]

==============================================================================

Section Cross References

    main.o(.text) refers to app_error.o(.text) for app_error_handler_bare
    main.o(.text) refers to boards.o(.text) for bsp_board_leds_init
    main.o(.text) refers to memmovea.o(.text) for __aeabi_memcpy4
    main.o(.text) refers to app_uart_fifo.o(.text) for app_uart_init
    main.o(.text) refers to app_mpu.o(.text) for mpu_init
    main.o(.text) refers to nrf_log_frontend.o(.text) for nrf_log_frontend_std_0
    main.o(.text) refers to nrf_drv_clock.o(.text) for nrf_drv_clock_init
    main.o(.text) refers to app_timer_1.o(.text) for app_timer_create
    main.o(.text) refers to nrf_drv_gpiote.o(.text) for nrf_drv_gpiote_init
    main.o(.text) refers to memseta.o(.text) for __aeabi_memclr4
    main.o(.text) refers to empl_outputs.o(.text) for inv_get_sensor_type_quat
    main.o(.text) refers to hal_outputs.o(.text) for inv_get_sensor_type_linear_acceleration
    main.o(.text) refers to dflti.o(.text) for __aeabi_i2d
    main.o(.text) refers to dmul.o(.text) for __aeabi_dmul
    main.o(.text) refers to f2d.o(.text) for __aeabi_f2d
    main.o(.text) refers to printfa.o(i.__0printf) for __2printf
    main.o(.text) refers to inv_mpu.o(.text) for mpu_init_inv
    main.o(.text) refers to mpl.o(.text) for inv_init_mpl
    main.o(.text) refers to quaternion_supervisor.o(.text) for inv_enable_quaternion
    main.o(.text) refers to fusion_9axis.o(.text) for inv_enable_9x_sensor_fusion
    main.o(.text) refers to fast_no_motion.o(.text) for inv_enable_fast_nomot
    main.o(.text) refers to compass_vec_cal.o(.text) for inv_enable_vector_compass_cal
    main.o(.text) refers to mag_disturb.o(.text) for inv_enable_magnetic_disturbance
    main.o(.text) refers to data_builder.o(.text) for inv_set_gyro_sample_rate
    main.o(.text) refers to ml_math_func.o(.text) for inv_orientation_matrix_to_scalar
    main.o(.text) refers to nrf_drv_inv_dmp.o(.text) for millis
    main.o(.text) refers to inv_mpu_dmp_motion_driver.o(.text) for dmp_load_motion_driver_firmware
    main.o(.text) refers to main.o(.constdata) for .constdata
    main.o(.text) refers to main.o(.bss) for .bss
    main.o(.text) refers to main.o(.data) for .data
    main.o(.text) refers to system_nrf52840.o(.data) for SystemCoreClock
    main.o(.constdata) refers to main.o(.bss) for timer1_data
    main.o(.data) refers to main.o(.conststring) for .conststring
    nrf_drv_twi.o(.text) refers to nrf_drv_common.o(.text) for nrf_drv_common_irq_enable
    nrf_drv_twi.o(.text) refers to system_nrf52840.o(.data) for SystemCoreClock
    nrf_drv_twi.o(.text) refers to nrf_drv_twi.o(.bss) for .bss
    nrf_drv_twi.o(.text) refers to nrf_drv_twi.o(.constdata) for .constdata
    nrf_drv_mpu_twi.o(.text) refers to nrf_drv_twi.o(.text) for nrf_drv_twi_init
    nrf_drv_mpu_twi.o(.text) refers to memmovea.o(.text) for __aeabi_memcpy
    nrf_drv_mpu_twi.o(.text) refers to nrf_log_frontend.o(.text) for nrf_log_frontend_std_0
    nrf_drv_mpu_twi.o(.text) refers to malloc.o(i.malloc) for malloc
    nrf_drv_mpu_twi.o(.text) refers to printfa.o(i.__0printf) for __2printf
    nrf_drv_mpu_twi.o(.text) refers to malloc.o(i.free) for free
    nrf_drv_mpu_twi.o(.text) refers to nrf_drv_mpu_twi.o(.data) for .data
    nrf_drv_mpu_twi.o(.text) refers to nrf_drv_mpu_twi.o(.constdata) for .constdata
    nrf_drv_mpu_twi.o(.text) refers to nrf_drv_mpu_twi.o(.bss) for .bss
    app_mpu.o(.text) refers to nrf_drv_mpu_twi.o(.text) for nrf_drv_mpu_write_registers
    nrf_drv_inv_dmp.o(.text) refers to app_timer_1.o(.text) for app_timer_cnt_get
    nrf_drv_inv_dmp.o(.text) refers to printfa.o(i.__0vsprintf) for vsprintf
    nrf_drv_inv_dmp.o(.text) refers to memseta.o(.text) for __aeabi_memclr4
    nrf_drv_inv_dmp.o(.text) refers to memmovea.o(.text) for __aeabi_memcpy
    nrf_drv_inv_dmp.o(.text) refers to nrf_log_frontend.o(.text) for nrf_log_push
    boards.o(.text) refers to boards.o(.constdata) for .constdata
    nrf_drv_clock.o(.text) refers to nrf_drv_common.o(.text) for nrf_drv_common_irq_enable
    nrf_drv_clock.o(.text) refers to app_util_platform.o(.text) for app_util_critical_region_enter
    nrf_drv_clock.o(.text) refers to nrf_drv_clock.o(.bss) for .bss
    nrf_drv_uart.o(.text) refers to nrf_drv_uart.o(.bss) for .bss
    nrf_drv_uart.o(.text) refers to nrf_drv_common.o(.text) for nrf_drv_common_irq_enable
    nrf_drv_gpiote.o(.text) refers to nrf_strerror.o(.text) for nrf_strerror_get
    nrf_drv_gpiote.o(.text) refers to nrf_log_frontend.o(.text) for nrf_log_frontend_std_2
    nrf_drv_gpiote.o(.text) refers to nrf_drv_common.o(.text) for nrf_drv_common_irq_enable
    nrf_drv_gpiote.o(.text) refers to nrf_drv_gpiote.o(.bss) for .bss
    nrf_drv_gpiote.o(.text) refers to nrf_drv_gpiote.o(.constdata) for .constdata
    app_timer_1.o(.text) refers to system_nrf52840.o(.data) for SystemCoreClock
    app_timer_1.o(.text) refers to app_timer_1.o(.data) for .data
    app_timer_1.o(.text) refers to app_timer_1.o(.bss) for .bss
    app_timer_1.o(.text) refers to app_util_platform.o(.text) for app_util_critical_region_enter
    app_error.o(.text) refers to app_error_weak.o(.text) for app_error_fault_handler
    app_error.o(.text) refers to app_error.o(.bss) for .bss
    app_error_weak.o(.text) refers to nrf_log_frontend.o(.text) for nrf_log_frontend_std_0
    app_uart_fifo.o(.text) refers to nrf_drv_uart.o(.text) for nrf_drv_uart_rx
    app_uart_fifo.o(.text) refers to app_fifo.o(.text) for app_fifo_put
    app_uart_fifo.o(.text) refers to memmovea.o(.text) for __aeabi_memcpy4
    app_uart_fifo.o(.text) refers to app_error.o(.text) for app_error_handler_bare
    app_uart_fifo.o(.text) refers to app_uart_fifo.o(.data) for .data
    app_uart_fifo.o(.text) refers to app_uart_fifo.o(.bss) for .bss
    app_uart_fifo.o(.text) refers to app_uart_fifo.o(.constdata) for .constdata
    app_util_platform.o(.text) refers to app_util_platform.o(.data) for .data
    nrf_assert.o(.text) refers to app_error_weak.o(.text) for app_error_fault_handler
    nrf_strerror.o(.text) refers to nrf_strerror.o(.constdata) for .constdata
    nrf_strerror.o(.constdata) refers to nrf_strerror.o(.conststring) for .conststring
    retarget.o(.text) refers to app_uart_fifo.o(.text) for app_uart_get
    nrf_log_backend_serial.o(.text) refers to memmovea.o(.text) for __aeabi_memcpy4
    nrf_log_backend_serial.o(.text) refers to nrf_drv_uart.o(.text) for nrf_drv_uart_uninit
    nrf_log_backend_serial.o(.text) refers to printfa.o(i.__0snprintf) for __2snprintf
    nrf_log_backend_serial.o(.text) refers to strlen.o(.text) for strlen
    nrf_log_backend_serial.o(.text) refers to ctype_o.o(.text) for __rt_ctype_table
    nrf_log_backend_serial.o(.text) refers to nrf_log_backend_serial.o(.data) for .data
    nrf_log_backend_serial.o(.text) refers to nrf_log_backend_serial.o(.constdata) for .constdata
    nrf_log_backend_serial.o(.text) refers to nrf_log_backend_serial.o(.bss) for .bss
    nrf_log_frontend.o(.text) refers to nrf_log_backend_serial.o(.text) for nrf_log_backend_init
    nrf_log_frontend.o(.text) refers to nrf_log_frontend.o(.bss) for .bss
    segger_rtt.o(.text) refers to strcpy.o(.text) for strcpy
    segger_rtt.o(.text) refers to memmovea.o(.text) for __aeabi_memcpy
    segger_rtt.o(.text) refers to app_util_platform.o(.text) for app_util_critical_region_enter
    segger_rtt.o(.text) refers to strlen.o(.text) for strlen
    segger_rtt.o(.text) refers to segger_rtt.o(.bss) for .bss
    segger_rtt.o(.text) refers to segger_rtt.o(.data) for .data
    data_builder.o(.text) refers to memmovea.o(.text) for __aeabi_memcpy
    data_builder.o(.text) refers to results_holder.o(.text) for inv_set_compass_bias_found
    data_builder.o(.text) refers to memseta.o(.text) for __aeabi_memclr4
    data_builder.o(.text) refers to storage_manager.o(.text) for inv_register_load_store
    data_builder.o(.text) refers to ml_math_func.o(.text) for inv_q30_mult
    data_builder.o(.text) refers to memcmp.o(.text) for memcmp
    data_builder.o(.text) refers to message_layer.o(.text) for inv_set_message
    data_builder.o(.text) refers to data_builder.o(.bss) for .bss
    data_builder.o(.text) refers to nrf_drv_inv_dmp.o(.text) for _MLPrintLog
    data_builder.o(.text) refers to data_builder.o(.conststring) for .conststring
    hal_outputs.o(.text) refers to data_builder.o(.text) for inv_get_accel_set
    hal_outputs.o(.text) refers to results_holder.o(.text) for inv_get_gravity
    hal_outputs.o(.text) refers to ml_math_func.o(.text) for inv_quaternion_to_rotation
    hal_outputs.o(.text) refers to atan2f.o(i.__hardfp_atan2f) for __hardfp_atan2f
    hal_outputs.o(.text) refers to asinf.o(i.__hardfp_asinf) for __hardfp_asinf
    hal_outputs.o(.text) refers to hal_outputs.o(.bss) for .bss
    hal_outputs.o(.text) refers to memseta.o(.text) for __aeabi_memclr4
    hal_outputs.o(.text) refers to start_manager.o(.text) for inv_register_mpl_start_notification
    hal_outputs.o(.text) refers to hal_outputs.o(.data) for .data
    message_layer.o(.text) refers to message_layer.o(.data) for .data
    ml_math_func.o(.text) refers to atan2f.o(i.__hardfp_atan2f) for __hardfp_atan2f
    ml_math_func.o(.text) refers to ldiv.o(.text) for __aeabi_ldivmod
    ml_math_func.o(.text) refers to llsshr.o(.text) for __aeabi_lasr
    ml_math_func.o(.text) refers to dmul.o(.text) for __aeabi_dmul
    ml_math_func.o(.text) refers to dadd.o(.text) for __aeabi_dadd
    ml_math_func.o(.text) refers to cdrcmple.o(.text) for __aeabi_cdrcmple
    ml_math_func.o(.text) refers to sqrt.o(i.__hardfp_sqrt) for __hardfp_sqrt
    ml_math_func.o(.text) refers to ddiv.o(.text) for __aeabi_ddiv
    ml_math_func.o(.text) refers to dflti.o(.text) for __aeabi_i2d
    ml_math_func.o(.text) refers to dfixi.o(.text) for __aeabi_d2iz
    ml_math_func.o(.text) refers to cdcmple.o(.text) for __aeabi_cdcmple
    ml_math_func.o(.text) refers to acos.o(i.__hardfp_acos) for __hardfp_acos
    ml_math_func.o(.text) refers to ml_math_func.o(.constdata) for .constdata
    ml_math_func.o(.text) refers to sqrtf.o(i.__hardfp_sqrtf) for __hardfp_sqrtf
    ml_math_func.o(.text) refers to f2d.o(.text) for __aeabi_f2d
    mlmath.o(.text) refers to asin.o(i.__hardfp_asin) for __hardfp_asin
    mlmath.o(.text) refers to atan.o(i.__hardfp_atan) for __hardfp_atan
    mlmath.o(.text) refers to atan2.o(i.__hardfp_atan2) for __hardfp_atan2
    mlmath.o(.text) refers to log.o(i.__hardfp_log) for __hardfp_log
    mlmath.o(.text) refers to sqrt.o(i.__hardfp_sqrt) for __hardfp_sqrt
    mlmath.o(.text) refers to ceil.o(i.__hardfp_ceil) for __hardfp_ceil
    mlmath.o(.text) refers to floor.o(i.__hardfp_floor) for __hardfp_floor
    mlmath.o(.text) refers to cos.o(i.__hardfp_cos) for __hardfp_cos
    mlmath.o(.text) refers to sin.o(i.__hardfp_sin) for __hardfp_sin
    mlmath.o(.text) refers to acos.o(i.__hardfp_acos) for __hardfp_acos
    mlmath.o(.text) refers to pow.o(i.__hardfp_pow) for __hardfp_pow
    mpl.o(.text) refers to storage_manager.o(.text) for inv_init_storage_manager
    mpl.o(.text) refers to start_manager.o(.text) for inv_init_start_manager
    mpl.o(.text) refers to data_builder.o(.text) for inv_init_data_builder
    mpl.o(.text) refers to results_holder.o(.text) for inv_enable_results_holder
    mpl.o(.text) refers to nrf_drv_inv_dmp.o(.text) for _MLPrintLog
    mpl.o(.text) refers to mpl.o(.constdata) for .constdata
    results_holder.o(.text) refers to message_layer.o(.text) for inv_set_message
    results_holder.o(.text) refers to ml_math_func.o(.text) for inv_q29_mult
    results_holder.o(.text) refers to data_builder.o(.text) for inv_get_last_timestamp
    results_holder.o(.text) refers to memseta.o(.text) for __aeabi_memclr4
    results_holder.o(.text) refers to start_manager.o(.text) for inv_register_mpl_start_notification
    results_holder.o(.text) refers to results_holder.o(.bss) for .bss
    start_manager.o(.text) refers to memseta.o(.text) for __aeabi_memclr4
    start_manager.o(.text) refers to memmovea.o(.text) for __aeabi_memmove4
    start_manager.o(.text) refers to start_manager.o(.bss) for .bss
    storage_manager.o(.text) refers to memseta.o(.text) for __aeabi_memclr4
    storage_manager.o(.text) refers to ml_math_func.o(.text) for inv_checksum
    storage_manager.o(.text) refers to storage_manager.o(.bss) for .bss
    inv_mpu_dmp_motion_driver.o(.text) refers to inv_mpu.o(.text) for mpu_load_firmware
    inv_mpu_dmp_motion_driver.o(.text) refers to inv_mpu_dmp_motion_driver.o(.constdata) for .constdata
    inv_mpu_dmp_motion_driver.o(.text) refers to inv_mpu_dmp_motion_driver.o(.bss) for .bss
    inv_mpu_dmp_motion_driver.o(.text) refers to memseta.o(.text) for __aeabi_memset
    inv_mpu_dmp_motion_driver.o(.text) refers to nrf_log_frontend.o(.text) for nrf_log_frontend_std_1
    inv_mpu_dmp_motion_driver.o(.text) refers to nrf_drv_inv_dmp.o(.text) for millis
    inv_mpu_dmp_motion_driver.o(.text) refers to system_nrf52840.o(.data) for SystemCoreClock
    inv_mpu.o(.text) refers to nrf_drv_mpu_twi.o(.text) for i2c_write_porting
    inv_mpu.o(.text) refers to nrf_log_frontend.o(.text) for nrf_log_frontend_std_2
    inv_mpu.o(.text) refers to inv_mpu.o(.data) for .data
    inv_mpu.o(.text) refers to nrf_drv_inv_dmp.o(.text) for millis
    inv_mpu.o(.text) refers to ldiv.o(.text) for __aeabi_ldivmod
    inv_mpu.o(.text) refers to f2d.o(.text) for __aeabi_f2d
    inv_mpu.o(.text) refers to fabs.o(i.__hardfp_fabs) for __hardfp_fabs
    inv_mpu.o(.text) refers to cdrcmple.o(.text) for __aeabi_cdrcmple
    inv_mpu.o(.text) refers to dflti.o(.text) for __aeabi_i2d
    inv_mpu.o(.text) refers to inv_mpu.o(.constdata) for .constdata
    inv_mpu.o(.text) refers to cdcmple.o(.text) for __aeabi_cdcmple
    inv_mpu.o(.text) refers to memcmp.o(.text) for memcmp
    inv_mpu.o(.text) refers to system_nrf52840.o(.data) for SystemCoreClock
    inv_mpu.o(.data) refers to inv_mpu.o(.constdata) for reg
    inv_mpu.o(.data) refers to inv_mpu.o(.constdata) for hw
    inv_mpu.o(.data) refers to inv_mpu.o(.constdata) for test
    empl_outputs.o(.text) refers to data_builder.o(.text) for inv_get_accel_set
    empl_outputs.o(.text) refers to ml_math_func.o(.text) for inv_q29_mult
    empl_outputs.o(.text) refers to atan2f.o(i.__hardfp_atan2f) for __hardfp_atan2f
    empl_outputs.o(.text) refers to sqrtf.o(i.__hardfp_sqrtf) for __hardfp_sqrtf
    empl_outputs.o(.text) refers to results_holder.o(.text) for inv_get_quaternion_set
    empl_outputs.o(.text) refers to memseta.o(.text) for __aeabi_memclr4
    empl_outputs.o(.text) refers to start_manager.o(.text) for inv_register_mpl_start_notification
    empl_outputs.o(.text) refers to empl_outputs.o(.bss) for .bss
    arm_startup_nrf52840.o(RESET) refers to arm_startup_nrf52840.o(STACK) for __initial_sp
    arm_startup_nrf52840.o(RESET) refers to arm_startup_nrf52840.o(.text) for Reset_Handler
    arm_startup_nrf52840.o(RESET) refers to nrf_drv_clock.o(.text) for POWER_CLOCK_IRQHandler
    arm_startup_nrf52840.o(RESET) refers to nrf_drv_uart.o(.text) for UARTE0_UART0_IRQHandler
    arm_startup_nrf52840.o(RESET) refers to nrf_drv_twi.o(.text) for SPIM0_SPIS0_TWIM0_TWIS0_SPI0_TWI0_IRQHandler
    arm_startup_nrf52840.o(RESET) refers to nrf_drv_gpiote.o(.text) for GPIOTE_IRQHandler
    arm_startup_nrf52840.o(RESET) refers to app_timer_1.o(.text) for RTC1_IRQHandler
    arm_startup_nrf52840.o(.text) refers to system_nrf52840.o(.text) for SystemInit
    arm_startup_nrf52840.o(.text) refers to entry.o(.ARM.Collect$$$$00000000) for __main
    system_nrf52840.o(.text) refers to system_nrf52840.o(.data) for .data
    compass_vec_cal.o(.text) refers to dflti.o(.text) for __aeabi_i2d
    compass_vec_cal.o(.text) refers to cdcmple.o(.text) for __aeabi_cdcmple
    compass_vec_cal.o(.text) refers to cdrcmple.o(.text) for __aeabi_cdrcmple
    compass_vec_cal.o(.text) refers to dmul.o(.text) for __aeabi_dmul
    compass_vec_cal.o(.text) refers to dadd.o(.text) for __aeabi_dsub
    compass_vec_cal.o(.text) refers to cosf.o(i.__hardfp_cosf) for __hardfp_cosf
    compass_vec_cal.o(.text) refers to f2d.o(.text) for __aeabi_f2d
    compass_vec_cal.o(.text) refers to log.o(i.__hardfp_log) for __hardfp_log
    compass_vec_cal.o(.text) refers to d2f.o(.text) for __aeabi_d2f
    compass_vec_cal.o(.text) refers to sqrtf.o(i.__hardfp_sqrtf) for __hardfp_sqrtf
    compass_vec_cal.o(.text) refers to compass_vec_cal.o(.bss) for .bss
    compass_vec_cal.o(.text) refers to compass_vec_cal.o(.data) for .data
    compass_vec_cal.o(.text) refers to ddiv.o(.text) for __aeabi_ddiv
    compass_vec_cal.o(.text) refers to sqrt.o(i.__hardfp_sqrt) for __hardfp_sqrt
    compass_vec_cal.o(.text) refers to data_builder.o(.text) for inv_get_compass_bias
    compass_vec_cal.o(.text) refers to ml_math_func.o(.text) for inv_convert_to_body_with_scale
    compass_vec_cal.o(.text) refers to results_holder.o(.text) for inv_got_compass_bias
    compass_vec_cal.o(.text) refers to accel_auto_cal.o(.text) for inv_check_sample_balance
    compass_vec_cal.o(.text) refers to memmovea.o(.text) for __aeabi_memcpy4
    compass_vec_cal.o(.text) refers to memseta.o(.text) for __aeabi_memclr4
    compass_vec_cal.o(.text) refers to mag_disturb.o(.text) for inv_set_magnetic_disturbance
    compass_vec_cal.o(.text) refers to dfixi.o(.text) for __aeabi_d2iz
    compass_vec_cal.o(.text) refers to start_manager.o(.text) for inv_register_mpl_start_notification
    compass_vec_cal.o(.text) refers to ldiv.o(.text) for __aeabi_ldivmod
    fast_no_motion.o(.text) refers to ffltl.o(.text) for __aeabi_l2f
    fast_no_motion.o(.text) refers to ffixl.o(.text) for __aeabi_f2lz
    fast_no_motion.o(.text) refers to llsshr.o(.text) for __aeabi_lasr
    fast_no_motion.o(.text) refers to llshl.o(.text) for __aeabi_llsl
    fast_no_motion.o(.text) refers to memseta.o(.text) for __aeabi_memclr4
    fast_no_motion.o(.text) refers to ml_math_func.o(.text) for inv_q30_mult
    fast_no_motion.o(.text) refers to data_builder.o(.text) for inv_set_gyro_bias
    fast_no_motion.o(.text) refers to results_holder.o(.text) for inv_set_motion_state
    fast_no_motion.o(.text) refers to fast_no_motion.o(.bss) for .bss
    fast_no_motion.o(.text) refers to sqrtf.o(i.__hardfp_sqrtf) for __hardfp_sqrtf
    fast_no_motion.o(.text) refers to message_layer.o(.text) for inv_set_message
    fast_no_motion.o(.text) refers to start_manager.o(.text) for inv_register_mpl_start_notification
    fusion_9axis.o(.text) refers to memmovea.o(.text) for __aeabi_memmove4
    fusion_9axis.o(.text) refers to ml_math_func.o(.text) for inv_q_mult
    fusion_9axis.o(.text) refers to dflti.o(.text) for __aeabi_i2d
    fusion_9axis.o(.text) refers to f2d.o(.text) for __aeabi_f2d
    fusion_9axis.o(.text) refers to ddiv.o(.text) for __aeabi_ddiv
    fusion_9axis.o(.text) refers to dmul.o(.text) for __aeabi_dmul
    fusion_9axis.o(.text) refers to d2f.o(.text) for __aeabi_d2f
    fusion_9axis.o(.text) refers to results_holder.o(.text) for inv_get_6axis_quaternion
    fusion_9axis.o(.text) refers to cosf.o(i.__hardfp_cosf) for __hardfp_cosf
    fusion_9axis.o(.text) refers to sinf.o(i.__hardfp_sinf) for __hardfp_sinf
    fusion_9axis.o(.text) refers to fusion_9axis.o(.bss) for .bss
    fusion_9axis.o(.text) refers to mag_disturb.o(.text) for inv_get_magnetic_disturbance_state
    fusion_9axis.o(.text) refers to memseta.o(.text) for __aeabi_memclr4
    fusion_9axis.o(.text) refers to data_builder.o(.text) for inv_register_data_cb
    fusion_9axis.o(.text) refers to start_manager.o(.text) for inv_register_mpl_start_notification
    mag_disturb.o(.text) refers to memseta.o(.text) for __aeabi_memclr4
    mag_disturb.o(.text) refers to results_holder.o(.text) for inv_set_compass_correction
    mag_disturb.o(.text) refers to ml_math_func.o(.text) for inv_quaternion_to_rotation
    mag_disturb.o(.text) refers to sqrtf.o(i.__hardfp_sqrtf) for __hardfp_sqrtf
    mag_disturb.o(.text) refers to data_builder.o(.text) for inv_get_gyro_on
    mag_disturb.o(.text) refers to acosf.o(i.__hardfp_acosf) for __hardfp_acosf
    mag_disturb.o(.text) refers to memcmp.o(.text) for memcmp
    mag_disturb.o(.text) refers to mag_disturb.o(.bss) for .bss
    mag_disturb.o(.text) refers to memmovea.o(.text) for __aeabi_memmove4
    mag_disturb.o(.text) refers to start_manager.o(.text) for inv_register_mpl_start_notification
    quaternion_supervisor.o(.text) refers to sqrtf.o(i.__hardfp_sqrtf) for __hardfp_sqrtf
    quaternion_supervisor.o(.text) refers to ml_math_func.o(.text) for inv_q_multf
    quaternion_supervisor.o(.text) refers to f2d.o(.text) for __aeabi_f2d
    quaternion_supervisor.o(.text) refers to quaternion_supervisor.o(.bss) for .bss
    quaternion_supervisor.o(.text) refers to dmul.o(.text) for __aeabi_dmul
    quaternion_supervisor.o(.text) refers to ddiv.o(.text) for __aeabi_ddiv
    quaternion_supervisor.o(.text) refers to dfixi.o(.text) for __aeabi_d2iz
    quaternion_supervisor.o(.text) refers to data_builder.o(.text) for inv_get_gyro_bias
    quaternion_supervisor.o(.text) refers to memcmp.o(.text) for memcmp
    quaternion_supervisor.o(.text) refers to cosf.o(i.__hardfp_cosf) for __hardfp_cosf
    quaternion_supervisor.o(.text) refers to sinf.o(i.__hardfp_sinf) for __hardfp_sinf
    quaternion_supervisor.o(.text) refers to results_holder.o(.text) for inv_get_linear_accel
    quaternion_supervisor.o(.text) refers to memseta.o(.text) for __aeabi_memclr4
    quaternion_supervisor.o(.text) refers to start_manager.o(.text) for inv_register_mpl_start_notification
    quaternion_supervisor.o(.text) refers to main.o(.data) for mpl_key
    accel_auto_cal.o(.text) refers to ml_math_func.o(.text) for inv_convert_to_body_with_scale
    accel_auto_cal.o(.text) refers to results_holder.o(.text) for inv_get_gravity
    accel_auto_cal.o(.text) refers to memmovea.o(.text) for __aeabi_memmove4
    accel_auto_cal.o(.text) refers to data_builder.o(.text) for inv_set_accel_bias_mask
    accel_auto_cal.o(.text) refers to dadd.o(.text) for __aeabi_dsub
    accel_auto_cal.o(.text) refers to fabs.o(i.__hardfp_fabs) for __hardfp_fabs
    accel_auto_cal.o(.text) refers to cdcmple.o(.text) for __aeabi_cdcmple
    accel_auto_cal.o(.text) refers to dfixi.o(.text) for __aeabi_d2iz
    accel_auto_cal.o(.text) refers to compass_vec_cal.o(.text) for inv_combine_compass_data
    accel_auto_cal.o(.text) refers to f2d.o(.text) for __aeabi_f2d
    accel_auto_cal.o(.text) refers to cdrcmple.o(.text) for __aeabi_cdrcmple
    accel_auto_cal.o(.text) refers to accel_auto_cal.o(.bss) for .bss
    accel_auto_cal.o(.text) refers to sqrt.o(i.__hardfp_sqrt) for __hardfp_sqrt
    accel_auto_cal.o(.text) refers to ddiv.o(.text) for __aeabi_ddiv
    accel_auto_cal.o(.text) refers to d2f.o(.text) for __aeabi_d2f
    accel_auto_cal.o(.text) refers to hal_outputs.o(.text) for inv_get_sensor_type_gravity
    accel_auto_cal.o(.text) refers to cos.o(i.__hardfp_cos) for __hardfp_cos
    accel_auto_cal.o(.text) refers to dmul.o(.text) for __aeabi_dmul
    accel_auto_cal.o(.text) refers to sqrtf.o(i.__hardfp_sqrtf) for __hardfp_sqrtf
    accel_auto_cal.o(.text) refers to fast_no_motion.o(.text) for inv_fast_nomot_store_data
    accel_auto_cal.o(.text) refers to ffltl.o(.text) for __aeabi_l2f
    accel_auto_cal.o(.text) refers to memseta.o(.text) for __aeabi_memclr4
    accel_auto_cal.o(.text) refers to start_manager.o(.text) for inv_register_mpl_start_notification
    acos.o(i.__hardfp_acos) refers (Special) to iusefp.o(.text) for __I$use$fp
    acos.o(i.__hardfp_acos) refers to dunder.o(i.__mathlib_dbl_infnan) for __mathlib_dbl_infnan
    acos.o(i.__hardfp_acos) refers to errno.o(i.__set_errno) for __set_errno
    acos.o(i.__hardfp_acos) refers to dunder.o(i.__mathlib_dbl_invalid) for __mathlib_dbl_invalid
    acos.o(i.__hardfp_acos) refers to dmul.o(.text) for __aeabi_dmul
    acos.o(i.__hardfp_acos) refers to poly.o(i.__kernel_poly) for __kernel_poly
    acos.o(i.__hardfp_acos) refers to dadd.o(.text) for __aeabi_dadd
    acos.o(i.__hardfp_acos) refers to ddiv.o(.text) for __aeabi_ddiv
    acos.o(i.__hardfp_acos) refers to sqrt.o(i.sqrt) for sqrt
    acos.o(i.__hardfp_acos) refers to acos.o(.constdata) for .constdata
    acos.o(i.__softfp_acos) refers (Special) to iusefp.o(.text) for __I$use$fp
    acos.o(i.__softfp_acos) refers to acos.o(i.__hardfp_acos) for __hardfp_acos
    acos.o(i.acos) refers (Special) to iusefp.o(.text) for __I$use$fp
    acos.o(i.acos) refers to acos.o(i.__hardfp_acos) for __hardfp_acos
    acos.o(.constdata) refers (Special) to iusefp.o(.text) for __I$use$fp
    acos_x.o(i.____hardfp_acos$lsc) refers (Special) to iusefp.o(.text) for __I$use$fp
    acos_x.o(i.____hardfp_acos$lsc) refers to dunder.o(i.__mathlib_dbl_infnan) for __mathlib_dbl_infnan
    acos_x.o(i.____hardfp_acos$lsc) refers to errno.o(i.__set_errno) for __set_errno
    acos_x.o(i.____hardfp_acos$lsc) refers to dmul.o(.text) for __aeabi_dmul
    acos_x.o(i.____hardfp_acos$lsc) refers to poly.o(i.__kernel_poly) for __kernel_poly
    acos_x.o(i.____hardfp_acos$lsc) refers to dadd.o(.text) for __aeabi_dadd
    acos_x.o(i.____hardfp_acos$lsc) refers to ddiv.o(.text) for __aeabi_ddiv
    acos_x.o(i.____hardfp_acos$lsc) refers to sqrt.o(i.sqrt) for sqrt
    acos_x.o(i.____hardfp_acos$lsc) refers to acos_x.o(.constdata) for .constdata
    acos_x.o(i.____softfp_acos$lsc) refers (Special) to iusefp.o(.text) for __I$use$fp
    acos_x.o(i.____softfp_acos$lsc) refers to acos_x.o(i.____hardfp_acos$lsc) for ____hardfp_acos$lsc
    acos_x.o(i.__acos$lsc) refers (Special) to iusefp.o(.text) for __I$use$fp
    acos_x.o(i.__acos$lsc) refers to acos_x.o(i.____hardfp_acos$lsc) for ____hardfp_acos$lsc
    acos_x.o(.constdata) refers (Special) to iusefp.o(.text) for __I$use$fp
    acosf.o(i.__hardfp_acosf) refers (Special) to iusefp.o(.text) for __I$use$fp
    acosf.o(i.__hardfp_acosf) refers to sqrtf.o(i.sqrtf) for sqrtf
    acosf.o(i.__hardfp_acosf) refers to funder.o(i.__mathlib_flt_infnan) for __mathlib_flt_infnan
    acosf.o(i.__hardfp_acosf) refers to errno.o(i.__set_errno) for __set_errno
    acosf.o(i.__hardfp_acosf) refers to funder.o(i.__mathlib_flt_invalid) for __mathlib_flt_invalid
    acosf.o(i.__softfp_acosf) refers (Special) to iusefp.o(.text) for __I$use$fp
    acosf.o(i.__softfp_acosf) refers to acosf.o(i.__hardfp_acosf) for __hardfp_acosf
    acosf.o(i.acosf) refers (Special) to iusefp.o(.text) for __I$use$fp
    acosf.o(i.acosf) refers to acosf.o(i.__hardfp_acosf) for __hardfp_acosf
    acosf_x.o(i.____hardfp_acosf$lsc) refers (Special) to iusefp.o(.text) for __I$use$fp
    acosf_x.o(i.____hardfp_acosf$lsc) refers to sqrtf.o(i.sqrtf) for sqrtf
    acosf_x.o(i.____hardfp_acosf$lsc) refers to funder.o(i.__mathlib_flt_infnan) for __mathlib_flt_infnan
    acosf_x.o(i.____hardfp_acosf$lsc) refers to errno.o(i.__set_errno) for __set_errno
    acosf_x.o(i.____softfp_acosf$lsc) refers (Special) to iusefp.o(.text) for __I$use$fp
    acosf_x.o(i.____softfp_acosf$lsc) refers to acosf_x.o(i.____hardfp_acosf$lsc) for ____hardfp_acosf$lsc
    acosf_x.o(i.__acosf$lsc) refers (Special) to iusefp.o(.text) for __I$use$fp
    acosf_x.o(i.__acosf$lsc) refers to acosf_x.o(i.____hardfp_acosf$lsc) for ____hardfp_acosf$lsc
    asin.o(i.__hardfp_asin) refers (Special) to iusefp.o(.text) for __I$use$fp
    asin.o(i.__hardfp_asin) refers to dunder.o(i.__mathlib_dbl_infnan) for __mathlib_dbl_infnan
    asin.o(i.__hardfp_asin) refers to dmul.o(.text) for __aeabi_dmul
    asin.o(i.__hardfp_asin) refers to dadd.o(.text) for __aeabi_dadd
    asin.o(i.__hardfp_asin) refers to errno.o(i.__set_errno) for __set_errno
    asin.o(i.__hardfp_asin) refers to dunder.o(i.__mathlib_dbl_invalid) for __mathlib_dbl_invalid
    asin.o(i.__hardfp_asin) refers to fpclassify.o(i.__ARM_fpclassify) for __ARM_fpclassify
    asin.o(i.__hardfp_asin) refers to dunder.o(i.__mathlib_dbl_underflow) for __mathlib_dbl_underflow
    asin.o(i.__hardfp_asin) refers to poly.o(i.__kernel_poly) for __kernel_poly
    asin.o(i.__hardfp_asin) refers to ddiv.o(.text) for __aeabi_ddiv
    asin.o(i.__hardfp_asin) refers to fabs.o(i.fabs) for fabs
    asin.o(i.__hardfp_asin) refers to sqrt.o(i.sqrt) for sqrt
    asin.o(i.__hardfp_asin) refers to asin.o(.constdata) for .constdata
    asin.o(i.__softfp_asin) refers (Special) to iusefp.o(.text) for __I$use$fp
    asin.o(i.__softfp_asin) refers to asin.o(i.__hardfp_asin) for __hardfp_asin
    asin.o(i.asin) refers (Special) to iusefp.o(.text) for __I$use$fp
    asin.o(i.asin) refers to asin.o(i.__hardfp_asin) for __hardfp_asin
    asin.o(.constdata) refers (Special) to iusefp.o(.text) for __I$use$fp
    asin_x.o(i.____hardfp_asin$lsc) refers (Special) to iusefp.o(.text) for __I$use$fp
    asin_x.o(i.____hardfp_asin$lsc) refers to dunder.o(i.__mathlib_dbl_infnan) for __mathlib_dbl_infnan
    asin_x.o(i.____hardfp_asin$lsc) refers to dmul.o(.text) for __aeabi_dmul
    asin_x.o(i.____hardfp_asin$lsc) refers to dadd.o(.text) for __aeabi_dadd
    asin_x.o(i.____hardfp_asin$lsc) refers to errno.o(i.__set_errno) for __set_errno
    asin_x.o(i.____hardfp_asin$lsc) refers to poly.o(i.__kernel_poly) for __kernel_poly
    asin_x.o(i.____hardfp_asin$lsc) refers to ddiv.o(.text) for __aeabi_ddiv
    asin_x.o(i.____hardfp_asin$lsc) refers to fabs.o(i.fabs) for fabs
    asin_x.o(i.____hardfp_asin$lsc) refers to sqrt.o(i.sqrt) for sqrt
    asin_x.o(i.____hardfp_asin$lsc) refers to asin_x.o(.constdata) for .constdata
    asin_x.o(i.____softfp_asin$lsc) refers (Special) to iusefp.o(.text) for __I$use$fp
    asin_x.o(i.____softfp_asin$lsc) refers to asin_x.o(i.____hardfp_asin$lsc) for ____hardfp_asin$lsc
    asin_x.o(i.__asin$lsc) refers (Special) to iusefp.o(.text) for __I$use$fp
    asin_x.o(i.__asin$lsc) refers to asin_x.o(i.____hardfp_asin$lsc) for ____hardfp_asin$lsc
    asin_x.o(.constdata) refers (Special) to iusefp.o(.text) for __I$use$fp
    asinf.o(i.__hardfp_asinf) refers (Special) to iusefp.o(.text) for __I$use$fp
    asinf.o(i.__hardfp_asinf) refers to sqrtf.o(i.sqrtf) for sqrtf
    asinf.o(i.__hardfp_asinf) refers to fpclassifyf.o(i.__ARM_fpclassifyf) for __ARM_fpclassifyf
    asinf.o(i.__hardfp_asinf) refers to funder.o(i.__mathlib_flt_underflow) for __mathlib_flt_underflow
    asinf.o(i.__hardfp_asinf) refers to funder.o(i.__mathlib_flt_infnan) for __mathlib_flt_infnan
    asinf.o(i.__hardfp_asinf) refers to errno.o(i.__set_errno) for __set_errno
    asinf.o(i.__hardfp_asinf) refers to funder.o(i.__mathlib_flt_invalid) for __mathlib_flt_invalid
    asinf.o(i.__softfp_asinf) refers (Special) to iusefp.o(.text) for __I$use$fp
    asinf.o(i.__softfp_asinf) refers to asinf.o(i.__hardfp_asinf) for __hardfp_asinf
    asinf.o(i.asinf) refers (Special) to iusefp.o(.text) for __I$use$fp
    asinf.o(i.asinf) refers to asinf.o(i.__hardfp_asinf) for __hardfp_asinf
    asinf_x.o(i.____hardfp_asinf$lsc) refers (Special) to iusefp.o(.text) for __I$use$fp
    asinf_x.o(i.____hardfp_asinf$lsc) refers to sqrtf.o(i.sqrtf) for sqrtf
    asinf_x.o(i.____hardfp_asinf$lsc) refers to funder.o(i.__mathlib_flt_infnan) for __mathlib_flt_infnan
    asinf_x.o(i.____hardfp_asinf$lsc) refers to errno.o(i.__set_errno) for __set_errno
    asinf_x.o(i.____softfp_asinf$lsc) refers (Special) to iusefp.o(.text) for __I$use$fp
    asinf_x.o(i.____softfp_asinf$lsc) refers to asinf_x.o(i.____hardfp_asinf$lsc) for ____hardfp_asinf$lsc
    asinf_x.o(i.__asinf$lsc) refers (Special) to iusefp.o(.text) for __I$use$fp
    asinf_x.o(i.__asinf$lsc) refers to asinf_x.o(i.____hardfp_asinf$lsc) for ____hardfp_asinf$lsc
    atan.o(i.__hardfp_atan) refers (Special) to iusefp.o(.text) for __I$use$fp
    atan.o(i.__hardfp_atan) refers to dunder.o(i.__mathlib_dbl_infnan) for __mathlib_dbl_infnan
    atan.o(i.__hardfp_atan) refers to fpclassify.o(i.__ARM_fpclassify) for __ARM_fpclassify
    atan.o(i.__hardfp_atan) refers to dunder.o(i.__mathlib_dbl_underflow) for __mathlib_dbl_underflow
    atan.o(i.__hardfp_atan) refers to fabs.o(i.fabs) for fabs
    atan.o(i.__hardfp_atan) refers to dadd.o(.text) for __aeabi_dadd
    atan.o(i.__hardfp_atan) refers to dmul.o(.text) for __aeabi_dmul
    atan.o(i.__hardfp_atan) refers to ddiv.o(.text) for __aeabi_ddiv
    atan.o(i.__hardfp_atan) refers to poly.o(i.__kernel_poly) for __kernel_poly
    atan.o(i.__hardfp_atan) refers to atan.o(.constdata) for .constdata
    atan.o(i.__softfp_atan) refers (Special) to iusefp.o(.text) for __I$use$fp
    atan.o(i.__softfp_atan) refers to atan.o(i.__hardfp_atan) for __hardfp_atan
    atan.o(i.atan) refers (Special) to iusefp.o(.text) for __I$use$fp
    atan.o(i.atan) refers to atan.o(i.__hardfp_atan) for __hardfp_atan
    atan.o(.constdata) refers (Special) to iusefp.o(.text) for __I$use$fp
    atan_x.o(i.____hardfp_atan$lsc) refers (Special) to iusefp.o(.text) for __I$use$fp
    atan_x.o(i.____hardfp_atan$lsc) refers to dunder.o(i.__mathlib_dbl_infnan) for __mathlib_dbl_infnan
    atan_x.o(i.____hardfp_atan$lsc) refers to fabs.o(i.fabs) for fabs
    atan_x.o(i.____hardfp_atan$lsc) refers to dadd.o(.text) for __aeabi_dadd
    atan_x.o(i.____hardfp_atan$lsc) refers to dmul.o(.text) for __aeabi_dmul
    atan_x.o(i.____hardfp_atan$lsc) refers to ddiv.o(.text) for __aeabi_ddiv
    atan_x.o(i.____hardfp_atan$lsc) refers to poly.o(i.__kernel_poly) for __kernel_poly
    atan_x.o(i.____hardfp_atan$lsc) refers to atan_x.o(.constdata) for .constdata
    atan_x.o(i.____softfp_atan$lsc) refers (Special) to iusefp.o(.text) for __I$use$fp
    atan_x.o(i.____softfp_atan$lsc) refers to atan_x.o(i.____hardfp_atan$lsc) for ____hardfp_atan$lsc
    atan_x.o(i.__atan$lsc) refers (Special) to iusefp.o(.text) for __I$use$fp
    atan_x.o(i.__atan$lsc) refers to atan_x.o(i.____hardfp_atan$lsc) for ____hardfp_atan$lsc
    atan_x.o(.constdata) refers (Special) to iusefp.o(.text) for __I$use$fp
    atan2.o(i.__hardfp_atan2) refers (Special) to iusefp.o(.text) for __I$use$fp
    atan2.o(i.__hardfp_atan2) refers to dunder.o(i.__mathlib_dbl_infnan2) for __mathlib_dbl_infnan2
    atan2.o(i.__hardfp_atan2) refers to atan.o(i.atan) for atan
    atan2.o(i.__hardfp_atan2) refers to ddiv.o(.text) for __aeabi_ddiv
    atan2.o(i.__hardfp_atan2) refers to fabs.o(i.fabs) for fabs
    atan2.o(i.__hardfp_atan2) refers to dadd.o(.text) for __aeabi_dsub
    atan2.o(i.__hardfp_atan2) refers to qnan.o(.constdata) for __mathlib_zero
    atan2.o(i.__softfp_atan2) refers (Special) to iusefp.o(.text) for __I$use$fp
    atan2.o(i.__softfp_atan2) refers to atan2.o(i.__hardfp_atan2) for __hardfp_atan2
    atan2.o(i.atan2) refers (Special) to iusefp.o(.text) for __I$use$fp
    atan2.o(i.atan2) refers to atan2.o(i.__hardfp_atan2) for __hardfp_atan2
    atan2_x.o(i.____hardfp_atan2$lsc) refers (Special) to iusefp.o(.text) for __I$use$fp
    atan2_x.o(i.____hardfp_atan2$lsc) refers to dunder.o(i.__mathlib_dbl_infnan2) for __mathlib_dbl_infnan2
    atan2_x.o(i.____hardfp_atan2$lsc) refers to atan.o(i.atan) for atan
    atan2_x.o(i.____hardfp_atan2$lsc) refers to errno.o(i.__set_errno) for __set_errno
    atan2_x.o(i.____hardfp_atan2$lsc) refers to ddiv.o(.text) for __aeabi_ddiv
    atan2_x.o(i.____hardfp_atan2$lsc) refers to fabs.o(i.fabs) for fabs
    atan2_x.o(i.____hardfp_atan2$lsc) refers to dadd.o(.text) for __aeabi_dsub
    atan2_x.o(i.____hardfp_atan2$lsc) refers to qnan.o(.constdata) for __mathlib_zero
    atan2_x.o(i.____softfp_atan2$lsc) refers (Special) to iusefp.o(.text) for __I$use$fp
    atan2_x.o(i.____softfp_atan2$lsc) refers to atan2_x.o(i.____hardfp_atan2$lsc) for ____hardfp_atan2$lsc
    atan2_x.o(i.__atan2$lsc) refers (Special) to iusefp.o(.text) for __I$use$fp
    atan2_x.o(i.__atan2$lsc) refers to atan2_x.o(i.____hardfp_atan2$lsc) for ____hardfp_atan2$lsc
    atan2f.o(i.__hardfp_atan2f) refers (Special) to iusefp.o(.text) for __I$use$fp
    atan2f.o(i.__hardfp_atan2f) refers to fpclassifyf.o(i.__ARM_fpclassifyf) for __ARM_fpclassifyf
    atan2f.o(i.__hardfp_atan2f) refers to funder.o(i.__mathlib_flt_underflow) for __mathlib_flt_underflow
    atan2f.o(i.__hardfp_atan2f) refers to funder.o(i.__mathlib_flt_infnan2) for __mathlib_flt_infnan2
    atan2f.o(i.__softfp_atan2f) refers (Special) to iusefp.o(.text) for __I$use$fp
    atan2f.o(i.__softfp_atan2f) refers to atan2f.o(i.__hardfp_atan2f) for __hardfp_atan2f
    atan2f.o(i.atan2f) refers (Special) to iusefp.o(.text) for __I$use$fp
    atan2f.o(i.atan2f) refers to atan2f.o(i.__hardfp_atan2f) for __hardfp_atan2f
    atan2f_x.o(i.____hardfp_atan2f$lsc) refers (Special) to iusefp.o(.text) for __I$use$fp
    atan2f_x.o(i.____hardfp_atan2f$lsc) refers to funder.o(i.__mathlib_flt_infnan2) for __mathlib_flt_infnan2
    atan2f_x.o(i.____hardfp_atan2f$lsc) refers to errno.o(i.__set_errno) for __set_errno
    atan2f_x.o(i.____softfp_atan2f$lsc) refers (Special) to iusefp.o(.text) for __I$use$fp
    atan2f_x.o(i.____softfp_atan2f$lsc) refers to atan2f_x.o(i.____hardfp_atan2f$lsc) for ____hardfp_atan2f$lsc
    atan2f_x.o(i.__atan2f$lsc) refers (Special) to iusefp.o(.text) for __I$use$fp
    atan2f_x.o(i.__atan2f$lsc) refers to atan2f_x.o(i.____hardfp_atan2f$lsc) for ____hardfp_atan2f$lsc
    ceil.o(i.__hardfp_ceil) refers (Special) to iusefp.o(.text) for __I$use$fp
    ceil.o(i.__hardfp_ceil) refers to dadd.o(.text) for __aeabi_dadd
    ceil.o(i.__hardfp_ceil) refers to cdrcmple.o(.text) for __aeabi_cdrcmple
    ceil.o(i.__softfp_ceil) refers (Special) to iusefp.o(.text) for __I$use$fp
    ceil.o(i.__softfp_ceil) refers to ceil.o(i.__hardfp_ceil) for __hardfp_ceil
    ceil.o(i.ceil) refers (Special) to iusefp.o(.text) for __I$use$fp
    ceil.o(i.ceil) refers to ceil.o(i.__hardfp_ceil) for __hardfp_ceil
    cos.o(i.__hardfp_cos) refers (Special) to iusefp.o(.text) for __I$use$fp
    cos.o(i.__hardfp_cos) refers to errno.o(i.__set_errno) for __set_errno
    cos.o(i.__hardfp_cos) refers to dunder.o(i.__mathlib_dbl_invalid) for __mathlib_dbl_invalid
    cos.o(i.__hardfp_cos) refers to dunder.o(i.__mathlib_dbl_infnan) for __mathlib_dbl_infnan
    cos.o(i.__hardfp_cos) refers to rred.o(i.__ieee754_rem_pio2) for __ieee754_rem_pio2
    cos.o(i.__hardfp_cos) refers to sin_i.o(i.__kernel_sin) for __kernel_sin
    cos.o(i.__hardfp_cos) refers to cos_i.o(i.__kernel_cos) for __kernel_cos
    cos.o(i.__softfp_cos) refers (Special) to iusefp.o(.text) for __I$use$fp
    cos.o(i.__softfp_cos) refers to cos.o(i.__hardfp_cos) for __hardfp_cos
    cos.o(i.cos) refers (Special) to iusefp.o(.text) for __I$use$fp
    cos.o(i.cos) refers to cos.o(i.__hardfp_cos) for __hardfp_cos
    cos_x.o(i.____hardfp_cos$lsc) refers (Special) to iusefp.o(.text) for __I$use$fp
    cos_x.o(i.____hardfp_cos$lsc) refers to errno.o(i.__set_errno) for __set_errno
    cos_x.o(i.____hardfp_cos$lsc) refers to dunder.o(i.__mathlib_dbl_infnan) for __mathlib_dbl_infnan
    cos_x.o(i.____hardfp_cos$lsc) refers to rred.o(i.__ieee754_rem_pio2) for __ieee754_rem_pio2
    cos_x.o(i.____hardfp_cos$lsc) refers to sin_i.o(i.__kernel_sin) for __kernel_sin
    cos_x.o(i.____hardfp_cos$lsc) refers to cos_i.o(i.__kernel_cos) for __kernel_cos
    cos_x.o(i.____softfp_cos$lsc) refers (Special) to iusefp.o(.text) for __I$use$fp
    cos_x.o(i.____softfp_cos$lsc) refers to cos_x.o(i.____hardfp_cos$lsc) for ____hardfp_cos$lsc
    cos_x.o(i.__cos$lsc) refers (Special) to iusefp.o(.text) for __I$use$fp
    cos_x.o(i.__cos$lsc) refers to cos_x.o(i.____hardfp_cos$lsc) for ____hardfp_cos$lsc
    cosf.o(i.__hardfp_cosf) refers (Special) to iusefp.o(.text) for __I$use$fp
    cosf.o(i.__hardfp_cosf) refers to rredf.o(i.__mathlib_rredf2) for __mathlib_rredf2
    cosf.o(i.__hardfp_cosf) refers to errno.o(i.__set_errno) for __set_errno
    cosf.o(i.__hardfp_cosf) refers to funder.o(i.__mathlib_flt_invalid) for __mathlib_flt_invalid
    cosf.o(i.__hardfp_cosf) refers to funder.o(i.__mathlib_flt_infnan) for __mathlib_flt_infnan
    cosf.o(i.__softfp_cosf) refers (Special) to iusefp.o(.text) for __I$use$fp
    cosf.o(i.__softfp_cosf) refers to cosf.o(i.__hardfp_cosf) for __hardfp_cosf
    cosf.o(i.cosf) refers (Special) to iusefp.o(.text) for __I$use$fp
    cosf.o(i.cosf) refers to cosf.o(i.__hardfp_cosf) for __hardfp_cosf
    cosf_x.o(i.____hardfp_cosf$lsc) refers (Special) to iusefp.o(.text) for __I$use$fp
    cosf_x.o(i.____hardfp_cosf$lsc) refers to rredf.o(i.__mathlib_rredf2) for __mathlib_rredf2
    cosf_x.o(i.____hardfp_cosf$lsc) refers to errno.o(i.__set_errno) for __set_errno
    cosf_x.o(i.____hardfp_cosf$lsc) refers to funder.o(i.__mathlib_flt_infnan) for __mathlib_flt_infnan
    cosf_x.o(i.____softfp_cosf$lsc) refers (Special) to iusefp.o(.text) for __I$use$fp
    cosf_x.o(i.____softfp_cosf$lsc) refers to cosf_x.o(i.____hardfp_cosf$lsc) for ____hardfp_cosf$lsc
    cosf_x.o(i.__cosf$lsc) refers (Special) to iusefp.o(.text) for __I$use$fp
    cosf_x.o(i.__cosf$lsc) refers to cosf_x.o(i.____hardfp_cosf$lsc) for ____hardfp_cosf$lsc
    fabs.o(i.__hardfp_fabs) refers (Special) to iusefp.o(.text) for __I$use$fp
    fabs.o(i.__softfp_fabs) refers (Special) to iusefp.o(.text) for __I$use$fp
    fabs.o(i.fabs) refers (Special) to iusefp.o(.text) for __I$use$fp
    floor.o(i.__hardfp_floor) refers (Special) to iusefp.o(.text) for __I$use$fp
    floor.o(i.__hardfp_floor) refers to dadd.o(.text) for __aeabi_dadd
    floor.o(i.__hardfp_floor) refers to cdrcmple.o(.text) for __aeabi_cdrcmple
    floor.o(i.__softfp_floor) refers (Special) to iusefp.o(.text) for __I$use$fp
    floor.o(i.__softfp_floor) refers to floor.o(i.__hardfp_floor) for __hardfp_floor
    floor.o(i.floor) refers (Special) to iusefp.o(.text) for __I$use$fp
    floor.o(i.floor) refers to floor.o(i.__hardfp_floor) for __hardfp_floor
    log.o(i.__hardfp_log) refers (Special) to iusefp.o(.text) for __I$use$fp
    log.o(i.__hardfp_log) refers to dunder.o(i.__mathlib_dbl_infnan) for __mathlib_dbl_infnan
    log.o(i.__hardfp_log) refers to errno.o(i.__set_errno) for __set_errno
    log.o(i.__hardfp_log) refers to dunder.o(i.__mathlib_dbl_invalid) for __mathlib_dbl_invalid
    log.o(i.__hardfp_log) refers to dunder.o(i.__mathlib_dbl_divzero) for __mathlib_dbl_divzero
    log.o(i.__hardfp_log) refers to dmul.o(.text) for __aeabi_dmul
    log.o(i.__hardfp_log) refers to dadd.o(.text) for __aeabi_dsub
    log.o(i.__hardfp_log) refers to cdcmple.o(.text) for __aeabi_cdcmpeq
    log.o(i.__hardfp_log) refers to dflti.o(.text) for __aeabi_i2d
    log.o(i.__hardfp_log) refers to ddiv.o(.text) for __aeabi_ddiv
    log.o(i.__hardfp_log) refers to poly.o(i.__kernel_poly) for __kernel_poly
    log.o(i.__hardfp_log) refers to qnan.o(.constdata) for __mathlib_zero
    log.o(i.__hardfp_log) refers to log.o(.constdata) for .constdata
    log.o(i.__softfp_log) refers (Special) to iusefp.o(.text) for __I$use$fp
    log.o(i.__softfp_log) refers to log.o(i.__hardfp_log) for __hardfp_log
    log.o(i.log) refers (Special) to iusefp.o(.text) for __I$use$fp
    log.o(i.log) refers to log.o(i.__hardfp_log) for __hardfp_log
    log.o(.constdata) refers (Special) to iusefp.o(.text) for __I$use$fp
    log_x.o(i.____hardfp_log$lsc) refers (Special) to iusefp.o(.text) for __I$use$fp
    log_x.o(i.____hardfp_log$lsc) refers to dunder.o(i.__mathlib_dbl_infnan) for __mathlib_dbl_infnan
    log_x.o(i.____hardfp_log$lsc) refers to errno.o(i.__set_errno) for __set_errno
    log_x.o(i.____hardfp_log$lsc) refers to dmul.o(.text) for __aeabi_dmul
    log_x.o(i.____hardfp_log$lsc) refers to dadd.o(.text) for __aeabi_dsub
    log_x.o(i.____hardfp_log$lsc) refers to cdcmple.o(.text) for __aeabi_cdcmpeq
    log_x.o(i.____hardfp_log$lsc) refers to dflti.o(.text) for __aeabi_i2d
    log_x.o(i.____hardfp_log$lsc) refers to ddiv.o(.text) for __aeabi_ddiv
    log_x.o(i.____hardfp_log$lsc) refers to poly.o(i.__kernel_poly) for __kernel_poly
    log_x.o(i.____hardfp_log$lsc) refers to qnan.o(.constdata) for __mathlib_zero
    log_x.o(i.____hardfp_log$lsc) refers to log_x.o(.constdata) for .constdata
    log_x.o(i.____softfp_log$lsc) refers (Special) to iusefp.o(.text) for __I$use$fp
    log_x.o(i.____softfp_log$lsc) refers to log_x.o(i.____hardfp_log$lsc) for ____hardfp_log$lsc
    log_x.o(i.__log$lsc) refers (Special) to iusefp.o(.text) for __I$use$fp
    log_x.o(i.__log$lsc) refers to log_x.o(i.____hardfp_log$lsc) for ____hardfp_log$lsc
    log_x.o(.constdata) refers (Special) to iusefp.o(.text) for __I$use$fp
    pow.o(i.__hardfp_pow) refers (Special) to iusefp.o(.text) for __I$use$fp
    pow.o(i.__hardfp_pow) refers to dunder.o(i.__mathlib_dbl_infnan2) for __mathlib_dbl_infnan2
    pow.o(i.__hardfp_pow) refers to errno.o(i.__set_errno) for __set_errno
    pow.o(i.__hardfp_pow) refers to dunder.o(i.__mathlib_dbl_divzero) for __mathlib_dbl_divzero
    pow.o(i.__hardfp_pow) refers to dunder.o(i.__mathlib_dbl_overflow) for __mathlib_dbl_overflow
    pow.o(i.__hardfp_pow) refers to ddiv.o(.text) for __aeabi_ddiv
    pow.o(i.__hardfp_pow) refers to sqrt.o(i.sqrt) for sqrt
    pow.o(i.__hardfp_pow) refers to fabs.o(i.fabs) for fabs
    pow.o(i.__hardfp_pow) refers to dflti.o(.text) for __aeabi_i2d
    pow.o(i.__hardfp_pow) refers to dunder.o(i.__mathlib_dbl_invalid) for __mathlib_dbl_invalid
    pow.o(i.__hardfp_pow) refers to dmul.o(.text) for __aeabi_dmul
    pow.o(i.__hardfp_pow) refers to dunder.o(i.__mathlib_dbl_underflow) for __mathlib_dbl_underflow
    pow.o(i.__hardfp_pow) refers to dadd.o(.text) for __aeabi_dsub
    pow.o(i.__hardfp_pow) refers to qnan.o(.constdata) for __mathlib_zero
    pow.o(i.__hardfp_pow) refers to poly.o(i.__kernel_poly) for __kernel_poly
    pow.o(i.__hardfp_pow) refers to pow.o(.constdata) for .constdata
    pow.o(i.__hardfp_pow) refers to cdrcmple.o(.text) for __aeabi_cdrcmple
    pow.o(i.__hardfp_pow) refers to dscalb.o(.text) for __ARM_scalbn
    pow.o(i.__hardfp_pow) refers to fpclassify.o(i.__ARM_fpclassify) for __ARM_fpclassify
    pow.o(i.__softfp_pow) refers (Special) to iusefp.o(.text) for __I$use$fp
    pow.o(i.__softfp_pow) refers to pow.o(i.__hardfp_pow) for __hardfp_pow
    pow.o(i.pow) refers (Special) to iusefp.o(.text) for __I$use$fp
    pow.o(i.pow) refers to pow.o(i.__hardfp_pow) for __hardfp_pow
    pow.o(.constdata) refers (Special) to iusefp.o(.text) for __I$use$fp
    pow_x.o(i.____hardfp_pow$lsc) refers (Special) to iusefp.o(.text) for __I$use$fp
    pow_x.o(i.____hardfp_pow$lsc) refers to dunder.o(i.__mathlib_dbl_infnan2) for __mathlib_dbl_infnan2
    pow_x.o(i.____hardfp_pow$lsc) refers to errno.o(i.__set_errno) for __set_errno
    pow_x.o(i.____hardfp_pow$lsc) refers to ddiv.o(.text) for __aeabi_ddiv
    pow_x.o(i.____hardfp_pow$lsc) refers to sqrt.o(i.sqrt) for sqrt
    pow_x.o(i.____hardfp_pow$lsc) refers to fabs.o(i.fabs) for fabs
    pow_x.o(i.____hardfp_pow$lsc) refers to dflti.o(.text) for __aeabi_i2d
    pow_x.o(i.____hardfp_pow$lsc) refers to dmul.o(.text) for __aeabi_dmul
    pow_x.o(i.____hardfp_pow$lsc) refers to dadd.o(.text) for __aeabi_dsub
    pow_x.o(i.____hardfp_pow$lsc) refers to qnan.o(.constdata) for __mathlib_zero
    pow_x.o(i.____hardfp_pow$lsc) refers to poly.o(i.__kernel_poly) for __kernel_poly
    pow_x.o(i.____hardfp_pow$lsc) refers to pow_x.o(.constdata) for .constdata
    pow_x.o(i.____hardfp_pow$lsc) refers to cdrcmple.o(.text) for __aeabi_cdrcmple
    pow_x.o(i.____hardfp_pow$lsc) refers to dscalb.o(.text) for __ARM_scalbn
    pow_x.o(i.____softfp_pow$lsc) refers (Special) to iusefp.o(.text) for __I$use$fp
    pow_x.o(i.____softfp_pow$lsc) refers to pow_x.o(i.____hardfp_pow$lsc) for ____hardfp_pow$lsc
    pow_x.o(i.__pow$lsc) refers (Special) to iusefp.o(.text) for __I$use$fp
    pow_x.o(i.__pow$lsc) refers to pow_x.o(i.____hardfp_pow$lsc) for ____hardfp_pow$lsc
    pow_x.o(.constdata) refers (Special) to iusefp.o(.text) for __I$use$fp
    sin.o(i.__hardfp_sin) refers (Special) to iusefp.o(.text) for __I$use$fp
    sin.o(i.__hardfp_sin) refers to errno.o(i.__set_errno) for __set_errno
    sin.o(i.__hardfp_sin) refers to dunder.o(i.__mathlib_dbl_invalid) for __mathlib_dbl_invalid
    sin.o(i.__hardfp_sin) refers to dunder.o(i.__mathlib_dbl_infnan) for __mathlib_dbl_infnan
    sin.o(i.__hardfp_sin) refers to rred.o(i.__ieee754_rem_pio2) for __ieee754_rem_pio2
    sin.o(i.__hardfp_sin) refers to cos_i.o(i.__kernel_cos) for __kernel_cos
    sin.o(i.__hardfp_sin) refers to sin_i.o(i.__kernel_sin) for __kernel_sin
    sin.o(i.__softfp_sin) refers (Special) to iusefp.o(.text) for __I$use$fp
    sin.o(i.__softfp_sin) refers to sin.o(i.__hardfp_sin) for __hardfp_sin
    sin.o(i.sin) refers (Special) to iusefp.o(.text) for __I$use$fp
    sin.o(i.sin) refers to sin.o(i.__hardfp_sin) for __hardfp_sin
    sin_x.o(i.____hardfp_sin$lsc) refers (Special) to iusefp.o(.text) for __I$use$fp
    sin_x.o(i.____hardfp_sin$lsc) refers to errno.o(i.__set_errno) for __set_errno
    sin_x.o(i.____hardfp_sin$lsc) refers to dunder.o(i.__mathlib_dbl_infnan) for __mathlib_dbl_infnan
    sin_x.o(i.____hardfp_sin$lsc) refers to rred.o(i.__ieee754_rem_pio2) for __ieee754_rem_pio2
    sin_x.o(i.____hardfp_sin$lsc) refers to cos_i.o(i.__kernel_cos) for __kernel_cos
    sin_x.o(i.____hardfp_sin$lsc) refers to sin_i.o(i.__kernel_sin) for __kernel_sin
    sin_x.o(i.____softfp_sin$lsc) refers (Special) to iusefp.o(.text) for __I$use$fp
    sin_x.o(i.____softfp_sin$lsc) refers to sin_x.o(i.____hardfp_sin$lsc) for ____hardfp_sin$lsc
    sin_x.o(i.__sin$lsc) refers (Special) to iusefp.o(.text) for __I$use$fp
    sin_x.o(i.__sin$lsc) refers to sin_x.o(i.____hardfp_sin$lsc) for ____hardfp_sin$lsc
    sinf.o(i.__hardfp_sinf) refers (Special) to iusefp.o(.text) for __I$use$fp
    sinf.o(i.__hardfp_sinf) refers to rredf.o(i.__mathlib_rredf2) for __mathlib_rredf2
    sinf.o(i.__hardfp_sinf) refers to fpclassifyf.o(i.__ARM_fpclassifyf) for __ARM_fpclassifyf
    sinf.o(i.__hardfp_sinf) refers to funder.o(i.__mathlib_flt_underflow) for __mathlib_flt_underflow
    sinf.o(i.__hardfp_sinf) refers to errno.o(i.__set_errno) for __set_errno
    sinf.o(i.__hardfp_sinf) refers to funder.o(i.__mathlib_flt_invalid) for __mathlib_flt_invalid
    sinf.o(i.__hardfp_sinf) refers to funder.o(i.__mathlib_flt_infnan) for __mathlib_flt_infnan
    sinf.o(i.__softfp_sinf) refers (Special) to iusefp.o(.text) for __I$use$fp
    sinf.o(i.__softfp_sinf) refers to sinf.o(i.__hardfp_sinf) for __hardfp_sinf
    sinf.o(i.sinf) refers (Special) to iusefp.o(.text) for __I$use$fp
    sinf.o(i.sinf) refers to sinf.o(i.__hardfp_sinf) for __hardfp_sinf
    sinf_x.o(i.____hardfp_sinf$lsc) refers (Special) to iusefp.o(.text) for __I$use$fp
    sinf_x.o(i.____hardfp_sinf$lsc) refers to rredf.o(i.__mathlib_rredf2) for __mathlib_rredf2
    sinf_x.o(i.____hardfp_sinf$lsc) refers to errno.o(i.__set_errno) for __set_errno
    sinf_x.o(i.____hardfp_sinf$lsc) refers to funder.o(i.__mathlib_flt_infnan) for __mathlib_flt_infnan
    sinf_x.o(i.____softfp_sinf$lsc) refers (Special) to iusefp.o(.text) for __I$use$fp
    sinf_x.o(i.____softfp_sinf$lsc) refers to sinf_x.o(i.____hardfp_sinf$lsc) for ____hardfp_sinf$lsc
    sinf_x.o(i.__sinf$lsc) refers (Special) to iusefp.o(.text) for __I$use$fp
    sinf_x.o(i.__sinf$lsc) refers to sinf_x.o(i.____hardfp_sinf$lsc) for ____hardfp_sinf$lsc
    sqrt.o(i.__hardfp_sqrt) refers (Special) to iusefp.o(.text) for __I$use$fp
    sqrt.o(i.__hardfp_sqrt) refers to dsqrt.o(.text) for _dsqrt
    sqrt.o(i.__hardfp_sqrt) refers to errno.o(i.__set_errno) for __set_errno
    sqrt.o(i.__softfp_sqrt) refers (Special) to iusefp.o(.text) for __I$use$fp
    sqrt.o(i.__softfp_sqrt) refers to dsqrt.o(.text) for _dsqrt
    sqrt.o(i.__softfp_sqrt) refers to errno.o(i.__set_errno) for __set_errno
    sqrt.o(i.sqrt) refers (Special) to iusefp.o(.text) for __I$use$fp
    sqrt.o(i.sqrt) refers to dsqrt.o(.text) for _dsqrt
    sqrt.o(i.sqrt) refers to errno.o(i.__set_errno) for __set_errno
    sqrt_x.o(i.____hardfp_sqrt$lsc) refers (Special) to iusefp.o(.text) for __I$use$fp
    sqrt_x.o(i.____hardfp_sqrt$lsc) refers to cdcmple.o(.text) for __aeabi_cdcmple
    sqrt_x.o(i.____hardfp_sqrt$lsc) refers to errno.o(i.__set_errno) for __set_errno
    sqrt_x.o(i.____hardfp_sqrt$lsc) refers to dsqrt.o(.text) for _dsqrt
    sqrt_x.o(i.____softfp_sqrt$lsc) refers (Special) to iusefp.o(.text) for __I$use$fp
    sqrt_x.o(i.____softfp_sqrt$lsc) refers to cdcmple.o(.text) for __aeabi_cdcmple
    sqrt_x.o(i.____softfp_sqrt$lsc) refers to errno.o(i.__set_errno) for __set_errno
    sqrt_x.o(i.____softfp_sqrt$lsc) refers to dsqrt.o(.text) for _dsqrt
    sqrt_x.o(i.__sqrt$lsc) refers (Special) to iusefp.o(.text) for __I$use$fp
    sqrt_x.o(i.__sqrt$lsc) refers to cdcmple.o(.text) for __aeabi_cdcmple
    sqrt_x.o(i.__sqrt$lsc) refers to errno.o(i.__set_errno) for __set_errno
    sqrt_x.o(i.__sqrt$lsc) refers to dsqrt.o(.text) for _dsqrt
    sqrtf.o(i.__hardfp_sqrtf) refers (Special) to iusefp.o(.text) for __I$use$fp
    sqrtf.o(i.__hardfp_sqrtf) refers to errno.o(i.__set_errno) for __set_errno
    sqrtf.o(i.__softfp_sqrtf) refers (Special) to iusefp.o(.text) for __I$use$fp
    sqrtf.o(i.__softfp_sqrtf) refers to errno.o(i.__set_errno) for __set_errno
    sqrtf.o(i.sqrtf) refers (Special) to iusefp.o(.text) for __I$use$fp
    sqrtf.o(i.sqrtf) refers to errno.o(i.__set_errno) for __set_errno
    sqrtf_x.o(i.____hardfp_sqrtf$lsc) refers (Special) to iusefp.o(.text) for __I$use$fp
    sqrtf_x.o(i.____hardfp_sqrtf$lsc) refers to errno.o(i.__set_errno) for __set_errno
    sqrtf_x.o(i.____softfp_sqrtf$lsc) refers (Special) to iusefp.o(.text) for __I$use$fp
    sqrtf_x.o(i.____softfp_sqrtf$lsc) refers to errno.o(i.__set_errno) for __set_errno
    sqrtf_x.o(i.__sqrtf$lsc) refers (Special) to iusefp.o(.text) for __I$use$fp
    sqrtf_x.o(i.__sqrtf$lsc) refers to errno.o(i.__set_errno) for __set_errno
    entry.o(.ARM.Collect$$$$00000000) refers (Special) to entry10a.o(.ARM.Collect$$$$0000000D) for __rt_final_cpp
    entry.o(.ARM.Collect$$$$00000000) refers (Special) to entry11a.o(.ARM.Collect$$$$0000000F) for __rt_final_exit
    entry.o(.ARM.Collect$$$$00000000) refers (Special) to entry7b.o(.ARM.Collect$$$$00000008) for _main_clock
    entry.o(.ARM.Collect$$$$00000000) refers (Special) to entry8b.o(.ARM.Collect$$$$0000000A) for _main_cpp_init
    entry.o(.ARM.Collect$$$$00000000) refers (Special) to entry9a.o(.ARM.Collect$$$$0000000B) for _main_init
    entry.o(.ARM.Collect$$$$00000000) refers (Special) to entry5.o(.ARM.Collect$$$$00000004) for _main_scatterload
    entry.o(.ARM.Collect$$$$00000000) refers (Special) to entry2.o(.ARM.Collect$$$$00000001) for _main_stk
    ldiv.o(.text) refers to uldiv.o(.text) for __aeabi_uldivmod
    ctype_o.o(.text) refers to ctype_o.o(.constdata) for .constdata
    ctype_o.o(.constdata) refers to ctype_o.o(.constdata) for __ctype_table
    isalnum_o.o(.text) refers to ctype_o.o(.text) for __rt_ctype_table
    isalpha_o.o(.text) refers to ctype_o.o(.text) for __rt_ctype_table
    isblank_o.o(.text) refers to ctype_o.o(.constdata) for __ctype_table
    iscntrl_o.o(.text) refers to ctype_o.o(.text) for __rt_ctype_table
    isdigit_o.o(.text) refers to ctype_o.o(.text) for __rt_ctype_table
    isgraph_o.o(.text) refers to ctype_o.o(.text) for __rt_ctype_table
    islower_o.o(.text) refers to ctype_o.o(.text) for __rt_ctype_table
    isprint_o.o(.text) refers to ctype_o.o(.text) for __rt_ctype_table
    ispunct_o.o(.text) refers to ctype_o.o(.text) for __rt_ctype_table
    isspace_o.o(.text) refers to ctype_o.o(.text) for __rt_ctype_table
    isupper_o.o(.text) refers to ctype_o.o(.text) for __rt_ctype_table
    isxdigit_o.o(.text) refers to ctype_o.o(.text) for __rt_ctype_table
    printfb.o(i.__0fprintf$bare) refers to printfb.o(i._printf_core) for _printf_core
    printfb.o(i.__0fprintf$bare) refers to retarget.o(.text) for fputc
    printfb.o(i.__0printf$bare) refers to printfb.o(i._printf_core) for _printf_core
    printfb.o(i.__0printf$bare) refers to retarget.o(.text) for fputc
    printfb.o(i.__0printf$bare) refers to retarget.o(.data) for __stdout
    printfb.o(i.__0snprintf$bare) refers to printfb.o(i._printf_core) for _printf_core
    printfb.o(i.__0snprintf$bare) refers to printfb.o(i._snputc) for _snputc
    printfb.o(i.__0sprintf$bare) refers to printfb.o(i._printf_core) for _printf_core
    printfb.o(i.__0sprintf$bare) refers to printfb.o(i._sputc) for _sputc
    printfb.o(i.__0vfprintf$bare) refers to printfb.o(i._printf_core) for _printf_core
    printfb.o(i.__0vfprintf$bare) refers to retarget.o(.text) for fputc
    printfb.o(i.__0vprintf$bare) refers to printfb.o(i._printf_core) for _printf_core
    printfb.o(i.__0vprintf$bare) refers to retarget.o(.text) for fputc
    printfb.o(i.__0vprintf$bare) refers to retarget.o(.data) for __stdout
    printfb.o(i.__0vsnprintf$bare) refers to printfb.o(i._printf_core) for _printf_core
    printfb.o(i.__0vsnprintf$bare) refers to printfb.o(i._snputc) for _snputc
    printfb.o(i.__0vsprintf$bare) refers to printfb.o(i._printf_core) for _printf_core
    printfb.o(i.__0vsprintf$bare) refers to printfb.o(i._sputc) for _sputc
    printf0.o(i.__0fprintf$0) refers to printf0.o(i._printf_core) for _printf_core
    printf0.o(i.__0fprintf$0) refers to retarget.o(.text) for fputc
    printf0.o(i.__0printf$0) refers to printf0.o(i._printf_core) for _printf_core
    printf0.o(i.__0printf$0) refers to retarget.o(.text) for fputc
    printf0.o(i.__0printf$0) refers to retarget.o(.data) for __stdout
    printf0.o(i.__0snprintf$0) refers to printf0.o(i._printf_core) for _printf_core
    printf0.o(i.__0snprintf$0) refers to printf0.o(i._snputc) for _snputc
    printf0.o(i.__0sprintf$0) refers to printf0.o(i._printf_core) for _printf_core
    printf0.o(i.__0sprintf$0) refers to printf0.o(i._sputc) for _sputc
    printf0.o(i.__0vfprintf$0) refers to printf0.o(i._printf_core) for _printf_core
    printf0.o(i.__0vfprintf$0) refers to retarget.o(.text) for fputc
    printf0.o(i.__0vprintf$0) refers to printf0.o(i._printf_core) for _printf_core
    printf0.o(i.__0vprintf$0) refers to retarget.o(.text) for fputc
    printf0.o(i.__0vprintf$0) refers to retarget.o(.data) for __stdout
    printf0.o(i.__0vsnprintf$0) refers to printf0.o(i._printf_core) for _printf_core
    printf0.o(i.__0vsnprintf$0) refers to printf0.o(i._snputc) for _snputc
    printf0.o(i.__0vsprintf$0) refers to printf0.o(i._printf_core) for _printf_core
    printf0.o(i.__0vsprintf$0) refers to printf0.o(i._sputc) for _sputc
    printf1.o(i.__0fprintf$1) refers to printf1.o(i._printf_core) for _printf_core
    printf1.o(i.__0fprintf$1) refers to retarget.o(.text) for fputc
    printf1.o(i.__0printf$1) refers to printf1.o(i._printf_core) for _printf_core
    printf1.o(i.__0printf$1) refers to retarget.o(.text) for fputc
    printf1.o(i.__0printf$1) refers to retarget.o(.data) for __stdout
    printf1.o(i.__0snprintf$1) refers to printf1.o(i._printf_core) for _printf_core
    printf1.o(i.__0snprintf$1) refers to printf1.o(i._snputc) for _snputc
    printf1.o(i.__0sprintf$1) refers to printf1.o(i._printf_core) for _printf_core
    printf1.o(i.__0sprintf$1) refers to printf1.o(i._sputc) for _sputc
    printf1.o(i.__0vfprintf$1) refers to printf1.o(i._printf_core) for _printf_core
    printf1.o(i.__0vfprintf$1) refers to retarget.o(.text) for fputc
    printf1.o(i.__0vprintf$1) refers to printf1.o(i._printf_core) for _printf_core
    printf1.o(i.__0vprintf$1) refers to retarget.o(.text) for fputc
    printf1.o(i.__0vprintf$1) refers to retarget.o(.data) for __stdout
    printf1.o(i.__0vsnprintf$1) refers to printf1.o(i._printf_core) for _printf_core
    printf1.o(i.__0vsnprintf$1) refers to printf1.o(i._snputc) for _snputc
    printf1.o(i.__0vsprintf$1) refers to printf1.o(i._printf_core) for _printf_core
    printf1.o(i.__0vsprintf$1) refers to printf1.o(i._sputc) for _sputc
    printf1.o(i._printf_core) refers to uidiv.o(.text) for __aeabi_uidivmod
    printf2.o(i.__0fprintf$2) refers to printf2.o(i._printf_core) for _printf_core
    printf2.o(i.__0fprintf$2) refers to retarget.o(.text) for fputc
    printf2.o(i.__0printf$2) refers to printf2.o(i._printf_core) for _printf_core
    printf2.o(i.__0printf$2) refers to retarget.o(.text) for fputc
    printf2.o(i.__0printf$2) refers to retarget.o(.data) for __stdout
    printf2.o(i.__0snprintf$2) refers to printf2.o(i._printf_core) for _printf_core
    printf2.o(i.__0snprintf$2) refers to printf2.o(i._snputc) for _snputc
    printf2.o(i.__0sprintf$2) refers to printf2.o(i._printf_core) for _printf_core
    printf2.o(i.__0sprintf$2) refers to printf2.o(i._sputc) for _sputc
    printf2.o(i.__0vfprintf$2) refers to printf2.o(i._printf_core) for _printf_core
    printf2.o(i.__0vfprintf$2) refers to retarget.o(.text) for fputc
    printf2.o(i.__0vprintf$2) refers to printf2.o(i._printf_core) for _printf_core
    printf2.o(i.__0vprintf$2) refers to retarget.o(.text) for fputc
    printf2.o(i.__0vprintf$2) refers to retarget.o(.data) for __stdout
    printf2.o(i.__0vsnprintf$2) refers to printf2.o(i._printf_core) for _printf_core
    printf2.o(i.__0vsnprintf$2) refers to printf2.o(i._snputc) for _snputc
    printf2.o(i.__0vsprintf$2) refers to printf2.o(i._printf_core) for _printf_core
    printf2.o(i.__0vsprintf$2) refers to printf2.o(i._sputc) for _sputc
    printf3.o(i.__0fprintf$3) refers to printf3.o(i._printf_core) for _printf_core
    printf3.o(i.__0fprintf$3) refers to retarget.o(.text) for fputc
    printf3.o(i.__0printf$3) refers to printf3.o(i._printf_core) for _printf_core
    printf3.o(i.__0printf$3) refers to retarget.o(.text) for fputc
    printf3.o(i.__0printf$3) refers to retarget.o(.data) for __stdout
    printf3.o(i.__0snprintf$3) refers to printf3.o(i._printf_core) for _printf_core
    printf3.o(i.__0snprintf$3) refers to printf3.o(i._snputc) for _snputc
    printf3.o(i.__0sprintf$3) refers to printf3.o(i._printf_core) for _printf_core
    printf3.o(i.__0sprintf$3) refers to printf3.o(i._sputc) for _sputc
    printf3.o(i.__0vfprintf$3) refers to printf3.o(i._printf_core) for _printf_core
    printf3.o(i.__0vfprintf$3) refers to retarget.o(.text) for fputc
    printf3.o(i.__0vprintf$3) refers to printf3.o(i._printf_core) for _printf_core
    printf3.o(i.__0vprintf$3) refers to retarget.o(.text) for fputc
    printf3.o(i.__0vprintf$3) refers to retarget.o(.data) for __stdout
    printf3.o(i.__0vsnprintf$3) refers to printf3.o(i._printf_core) for _printf_core
    printf3.o(i.__0vsnprintf$3) refers to printf3.o(i._snputc) for _snputc
    printf3.o(i.__0vsprintf$3) refers to printf3.o(i._printf_core) for _printf_core
    printf3.o(i.__0vsprintf$3) refers to printf3.o(i._sputc) for _sputc
    printf3.o(i._printf_core) refers to uidiv.o(.text) for __aeabi_uidivmod
    printf4.o(i.__0fprintf$4) refers to printf4.o(i._printf_core) for _printf_core
    printf4.o(i.__0fprintf$4) refers to retarget.o(.text) for fputc
    printf4.o(i.__0printf$4) refers to printf4.o(i._printf_core) for _printf_core
    printf4.o(i.__0printf$4) refers to retarget.o(.text) for fputc
    printf4.o(i.__0printf$4) refers to retarget.o(.data) for __stdout
    printf4.o(i.__0snprintf$4) refers to printf4.o(i._printf_core) for _printf_core
    printf4.o(i.__0snprintf$4) refers to printf4.o(i._snputc) for _snputc
    printf4.o(i.__0sprintf$4) refers to printf4.o(i._printf_core) for _printf_core
    printf4.o(i.__0sprintf$4) refers to printf4.o(i._sputc) for _sputc
    printf4.o(i.__0vfprintf$4) refers to printf4.o(i._printf_core) for _printf_core
    printf4.o(i.__0vfprintf$4) refers to retarget.o(.text) for fputc
    printf4.o(i.__0vprintf$4) refers to printf4.o(i._printf_core) for _printf_core
    printf4.o(i.__0vprintf$4) refers to retarget.o(.text) for fputc
    printf4.o(i.__0vprintf$4) refers to retarget.o(.data) for __stdout
    printf4.o(i.__0vsnprintf$4) refers to printf4.o(i._printf_core) for _printf_core
    printf4.o(i.__0vsnprintf$4) refers to printf4.o(i._snputc) for _snputc
    printf4.o(i.__0vsprintf$4) refers to printf4.o(i._printf_core) for _printf_core
    printf4.o(i.__0vsprintf$4) refers to printf4.o(i._sputc) for _sputc
    printf4.o(i._printf_core) refers to uldiv.o(.text) for __aeabi_uldivmod
    printf5.o(i.__0fprintf$5) refers to printf5.o(i._printf_core) for _printf_core
    printf5.o(i.__0fprintf$5) refers to retarget.o(.text) for fputc
    printf5.o(i.__0printf$5) refers to printf5.o(i._printf_core) for _printf_core
    printf5.o(i.__0printf$5) refers to retarget.o(.text) for fputc
    printf5.o(i.__0printf$5) refers to retarget.o(.data) for __stdout
    printf5.o(i.__0snprintf$5) refers to printf5.o(i._printf_core) for _printf_core
    printf5.o(i.__0snprintf$5) refers to printf5.o(i._snputc) for _snputc
    printf5.o(i.__0sprintf$5) refers to printf5.o(i._printf_core) for _printf_core
    printf5.o(i.__0sprintf$5) refers to printf5.o(i._sputc) for _sputc
    printf5.o(i.__0vfprintf$5) refers to printf5.o(i._printf_core) for _printf_core
    printf5.o(i.__0vfprintf$5) refers to retarget.o(.text) for fputc
    printf5.o(i.__0vprintf$5) refers to printf5.o(i._printf_core) for _printf_core
    printf5.o(i.__0vprintf$5) refers to retarget.o(.text) for fputc
    printf5.o(i.__0vprintf$5) refers to retarget.o(.data) for __stdout
    printf5.o(i.__0vsnprintf$5) refers to printf5.o(i._printf_core) for _printf_core
    printf5.o(i.__0vsnprintf$5) refers to printf5.o(i._snputc) for _snputc
    printf5.o(i.__0vsprintf$5) refers to printf5.o(i._printf_core) for _printf_core
    printf5.o(i.__0vsprintf$5) refers to printf5.o(i._sputc) for _sputc
    printf5.o(i._printf_core) refers to uldiv.o(.text) for __aeabi_uldivmod
    printf6.o(i.__0fprintf$6) refers to printf6.o(i._printf_core) for _printf_core
    printf6.o(i.__0fprintf$6) refers to retarget.o(.text) for fputc
    printf6.o(i.__0printf$6) refers to printf6.o(i._printf_core) for _printf_core
    printf6.o(i.__0printf$6) refers to retarget.o(.text) for fputc
    printf6.o(i.__0printf$6) refers to retarget.o(.data) for __stdout
    printf6.o(i.__0snprintf$6) refers to printf6.o(i._printf_core) for _printf_core
    printf6.o(i.__0snprintf$6) refers to printf6.o(i._snputc) for _snputc
    printf6.o(i.__0sprintf$6) refers to printf6.o(i._printf_core) for _printf_core
    printf6.o(i.__0sprintf$6) refers to printf6.o(i._sputc) for _sputc
    printf6.o(i.__0vfprintf$6) refers to printf6.o(i._printf_core) for _printf_core
    printf6.o(i.__0vfprintf$6) refers to retarget.o(.text) for fputc
    printf6.o(i.__0vprintf$6) refers to printf6.o(i._printf_core) for _printf_core
    printf6.o(i.__0vprintf$6) refers to retarget.o(.text) for fputc
    printf6.o(i.__0vprintf$6) refers to retarget.o(.data) for __stdout
    printf6.o(i.__0vsnprintf$6) refers to printf6.o(i._printf_core) for _printf_core
    printf6.o(i.__0vsnprintf$6) refers to printf6.o(i._snputc) for _snputc
    printf6.o(i.__0vsprintf$6) refers to printf6.o(i._printf_core) for _printf_core
    printf6.o(i.__0vsprintf$6) refers to printf6.o(i._sputc) for _sputc
    printf6.o(i._printf_core) refers to printf6.o(i._printf_pre_padding) for _printf_pre_padding
    printf6.o(i._printf_core) refers to uidiv.o(.text) for __aeabi_uidivmod
    printf6.o(i._printf_core) refers to printf6.o(i._printf_post_padding) for _printf_post_padding
    printf7.o(i.__0fprintf$7) refers to printf7.o(i._printf_core) for _printf_core
    printf7.o(i.__0fprintf$7) refers to retarget.o(.text) for fputc
    printf7.o(i.__0printf$7) refers to printf7.o(i._printf_core) for _printf_core
    printf7.o(i.__0printf$7) refers to retarget.o(.text) for fputc
    printf7.o(i.__0printf$7) refers to retarget.o(.data) for __stdout
    printf7.o(i.__0snprintf$7) refers to printf7.o(i._printf_core) for _printf_core
    printf7.o(i.__0snprintf$7) refers to printf7.o(i._snputc) for _snputc
    printf7.o(i.__0sprintf$7) refers to printf7.o(i._printf_core) for _printf_core
    printf7.o(i.__0sprintf$7) refers to printf7.o(i._sputc) for _sputc
    printf7.o(i.__0vfprintf$7) refers to printf7.o(i._printf_core) for _printf_core
    printf7.o(i.__0vfprintf$7) refers to retarget.o(.text) for fputc
    printf7.o(i.__0vprintf$7) refers to printf7.o(i._printf_core) for _printf_core
    printf7.o(i.__0vprintf$7) refers to retarget.o(.text) for fputc
    printf7.o(i.__0vprintf$7) refers to retarget.o(.data) for __stdout
    printf7.o(i.__0vsnprintf$7) refers to printf7.o(i._printf_core) for _printf_core
    printf7.o(i.__0vsnprintf$7) refers to printf7.o(i._snputc) for _snputc
    printf7.o(i.__0vsprintf$7) refers to printf7.o(i._printf_core) for _printf_core
    printf7.o(i.__0vsprintf$7) refers to printf7.o(i._sputc) for _sputc
    printf7.o(i._printf_core) refers to printf7.o(i._printf_pre_padding) for _printf_pre_padding
    printf7.o(i._printf_core) refers to uldiv.o(.text) for __aeabi_uldivmod
    printf7.o(i._printf_core) refers to printf7.o(i._printf_post_padding) for _printf_post_padding
    printf8.o(i.__0fprintf$8) refers to printf8.o(i._printf_core) for _printf_core
    printf8.o(i.__0fprintf$8) refers to retarget.o(.text) for fputc
    printf8.o(i.__0printf$8) refers to printf8.o(i._printf_core) for _printf_core
    printf8.o(i.__0printf$8) refers to retarget.o(.text) for fputc
    printf8.o(i.__0printf$8) refers to retarget.o(.data) for __stdout
    printf8.o(i.__0snprintf$8) refers to printf8.o(i._printf_core) for _printf_core
    printf8.o(i.__0snprintf$8) refers to printf8.o(i._snputc) for _snputc
    printf8.o(i.__0sprintf$8) refers to printf8.o(i._printf_core) for _printf_core
    printf8.o(i.__0sprintf$8) refers to printf8.o(i._sputc) for _sputc
    printf8.o(i.__0vfprintf$8) refers to printf8.o(i._printf_core) for _printf_core
    printf8.o(i.__0vfprintf$8) refers to retarget.o(.text) for fputc
    printf8.o(i.__0vprintf$8) refers to printf8.o(i._printf_core) for _printf_core
    printf8.o(i.__0vprintf$8) refers to retarget.o(.text) for fputc
    printf8.o(i.__0vprintf$8) refers to retarget.o(.data) for __stdout
    printf8.o(i.__0vsnprintf$8) refers to printf8.o(i._printf_core) for _printf_core
    printf8.o(i.__0vsnprintf$8) refers to printf8.o(i._snputc) for _snputc
    printf8.o(i.__0vsprintf$8) refers to printf8.o(i._printf_core) for _printf_core
    printf8.o(i.__0vsprintf$8) refers to printf8.o(i._sputc) for _sputc
    printf8.o(i._printf_core) refers to printf8.o(i._printf_pre_padding) for _printf_pre_padding
    printf8.o(i._printf_core) refers to uldiv.o(.text) for __aeabi_uldivmod
    printf8.o(i._printf_core) refers to printf8.o(i._printf_post_padding) for _printf_post_padding
    printfa.o(i.__0fprintf) refers (Special) to iusefp.o(.text) for __I$use$fp
    printfa.o(i.__0fprintf) refers to printfa.o(i._printf_core) for _printf_core
    printfa.o(i.__0fprintf) refers to retarget.o(.text) for fputc
    printfa.o(i.__0printf) refers (Special) to iusefp.o(.text) for __I$use$fp
    printfa.o(i.__0printf) refers to printfa.o(i._printf_core) for _printf_core
    printfa.o(i.__0printf) refers to retarget.o(.text) for fputc
    printfa.o(i.__0printf) refers to retarget.o(.data) for __stdout
    printfa.o(i.__0snprintf) refers (Special) to iusefp.o(.text) for __I$use$fp
    printfa.o(i.__0snprintf) refers to printfa.o(i._printf_core) for _printf_core
    printfa.o(i.__0snprintf) refers to printfa.o(i._snputc) for _snputc
    printfa.o(i.__0sprintf) refers (Special) to iusefp.o(.text) for __I$use$fp
    printfa.o(i.__0sprintf) refers to printfa.o(i._printf_core) for _printf_core
    printfa.o(i.__0sprintf) refers to printfa.o(i._sputc) for _sputc
    printfa.o(i.__0vfprintf) refers (Special) to iusefp.o(.text) for __I$use$fp
    printfa.o(i.__0vfprintf) refers to printfa.o(i._printf_core) for _printf_core
    printfa.o(i.__0vfprintf) refers to retarget.o(.text) for fputc
    printfa.o(i.__0vprintf) refers (Special) to iusefp.o(.text) for __I$use$fp
    printfa.o(i.__0vprintf) refers to printfa.o(i._printf_core) for _printf_core
    printfa.o(i.__0vprintf) refers to retarget.o(.text) for fputc
    printfa.o(i.__0vprintf) refers to retarget.o(.data) for __stdout
    printfa.o(i.__0vsnprintf) refers (Special) to iusefp.o(.text) for __I$use$fp
    printfa.o(i.__0vsnprintf) refers to printfa.o(i._printf_core) for _printf_core
    printfa.o(i.__0vsnprintf) refers to printfa.o(i._snputc) for _snputc
    printfa.o(i.__0vsprintf) refers (Special) to iusefp.o(.text) for __I$use$fp
    printfa.o(i.__0vsprintf) refers to printfa.o(i._printf_core) for _printf_core
    printfa.o(i.__0vsprintf) refers to printfa.o(i._sputc) for _sputc
    printfa.o(i._fp_digits) refers (Special) to iusefp.o(.text) for __I$use$fp
    printfa.o(i._fp_digits) refers to dmul.o(.text) for __aeabi_dmul
    printfa.o(i._fp_digits) refers to ddiv.o(.text) for __aeabi_ddiv
    printfa.o(i._fp_digits) refers to cdrcmple.o(.text) for __aeabi_cdrcmple
    printfa.o(i._fp_digits) refers to dadd.o(.text) for __aeabi_dadd
    printfa.o(i._fp_digits) refers to dfixul.o(.text) for __aeabi_d2ulz
    printfa.o(i._fp_digits) refers to uldiv.o(.text) for __aeabi_uldivmod
    printfa.o(i._printf_core) refers (Special) to iusefp.o(.text) for __I$use$fp
    printfa.o(i._printf_core) refers to printfa.o(i._printf_pre_padding) for _printf_pre_padding
    printfa.o(i._printf_core) refers to uldiv.o(.text) for __aeabi_uldivmod
    printfa.o(i._printf_core) refers to printfa.o(i._printf_post_padding) for _printf_post_padding
    printfa.o(i._printf_core) refers to printfa.o(i._fp_digits) for _fp_digits
    printfa.o(i._printf_core) refers to uidiv.o(.text) for __aeabi_uidivmod
    printfa.o(i._printf_post_padding) refers (Special) to iusefp.o(.text) for __I$use$fp
    printfa.o(i._printf_pre_padding) refers (Special) to iusefp.o(.text) for __I$use$fp
    printfa.o(i._snputc) refers (Special) to iusefp.o(.text) for __I$use$fp
    printfa.o(i._sputc) refers (Special) to iusefp.o(.text) for __I$use$fp
    malloc.o(i.free) refers to mvars.o(.data) for __microlib_freelist
    malloc.o(i.malloc) refers to mvars.o(.data) for __microlib_freelist_initialised
    malloc.o(i.malloc) refers to mvars.o(.data) for __microlib_freelist
    malloc.o(i.malloc) refers to arm_startup_nrf52840.o(HEAP) for __heap_base
    mallocr.o(i.__free$realloc) refers to mvars.o(.data) for __microlib_freelist
    mallocr.o(i.__malloc$realloc) refers to mallocr.o(i.internal_alloc) for internal_alloc
    mallocr.o(i.__malloc$realloc) refers to mvars.o(.data) for __microlib_freelist_initialised
    mallocr.o(i.__malloc$realloc) refers to arm_startup_nrf52840.o(HEAP) for __heap_base
    mallocr.o(i.__malloc$realloc) refers to mvars.o(.data) for __microlib_freelist
    mallocr.o(i.internal_alloc) refers to memmovea.o(.text) for __aeabi_memcpy
    mallocr.o(i.internal_alloc) refers to mvars.o(.data) for __microlib_freelist
    mallocr.o(i.realloc) refers to mallocr.o(i.__free$realloc) for __free$realloc
    mallocr.o(i.realloc) refers to mallocr.o(i.internal_alloc) for internal_alloc
    mallocr.o(i.realloc) refers to mallocr.o(i.__malloc$realloc) for __malloc$realloc
    mallocr.o(i.realloc) refers to mvars.o(.data) for __microlib_freelist
    malloca.o(i.__aligned_malloc) refers to mvars.o(.data) for __microlib_freelist_initialised
    malloca.o(i.__aligned_malloc) refers to mvars.o(.data) for __microlib_freelist
    malloca.o(i.__aligned_malloc) refers to arm_startup_nrf52840.o(HEAP) for __heap_base
    malloca.o(i.__free$memalign) refers to mvars.o(.data) for __microlib_freelist
    malloca.o(i.__malloc$memalign) refers to malloca.o(i.__aligned_malloc) for __aligned_malloc
    mallocra.o(i.__aligned_malloc$realloc) refers to mallocra.o(i.internal_alloc) for internal_alloc
    mallocra.o(i.__aligned_malloc$realloc) refers to mvars.o(.data) for __microlib_freelist_initialised
    mallocra.o(i.__aligned_malloc$realloc) refers to arm_startup_nrf52840.o(HEAP) for __heap_base
    mallocra.o(i.__aligned_malloc$realloc) refers to mvars.o(.data) for __microlib_freelist
    mallocra.o(i.__free$realloc$memalign) refers to mvars.o(.data) for __microlib_freelist
    mallocra.o(i.__malloc$realloc$memalign) refers to mallocra.o(i.__aligned_malloc$realloc) for __aligned_malloc$realloc
    mallocra.o(i.__realloc$memalign) refers to mallocra.o(i.__free$realloc$memalign) for __free$realloc$memalign
    mallocra.o(i.__realloc$memalign) refers to mallocra.o(i.internal_alloc) for internal_alloc
    mallocra.o(i.__realloc$memalign) refers to mallocra.o(i.__malloc$realloc$memalign) for __malloc$realloc$memalign
    mallocra.o(i.__realloc$memalign) refers to mvars.o(.data) for __microlib_freelist
    mallocra.o(i.internal_alloc) refers to memmovea.o(.text) for __aeabi_memcpy
    mallocra.o(i.internal_alloc) refers to mvars.o(.data) for __microlib_freelist
    dadd.o(.text) refers (Special) to iusefp.o(.text) for __I$use$fp
    dadd.o(.text) refers to llshl.o(.text) for __aeabi_llsl
    dadd.o(.text) refers to llsshr.o(.text) for __aeabi_lasr
    dadd.o(.text) refers to depilogue.o(.text) for _double_epilogue
    dmul.o(.text) refers (Special) to iusefp.o(.text) for __I$use$fp
    dmul.o(.text) refers to depilogue.o(.text) for _double_epilogue
    ddiv.o(.text) refers (Special) to iusefp.o(.text) for __I$use$fp
    ddiv.o(.text) refers to depilogue.o(.text) for _double_round
    ffltl.o(.text) refers (Special) to iusefp.o(.text) for __I$use$fp
    ffltl.o(.text) refers to fepilogue.o(.text) for _float_epilogue
    dflti.o(.text) refers (Special) to iusefp.o(.text) for __I$use$fp
    dflti.o(.text) refers to depilogue.o(.text) for _double_epilogue
    ffixl.o(.text) refers (Special) to iusefp.o(.text) for __I$use$fp
    ffixl.o(.text) refers to llshl.o(.text) for __aeabi_llsl
    dfixi.o(.text) refers (Special) to iusefp.o(.text) for __I$use$fp
    dfixi.o(.text) refers to llushr.o(.text) for __aeabi_llsr
    f2d.o(.text) refers (Special) to iusefp.o(.text) for __I$use$fp
    cdcmple.o(.text) refers (Special) to iusefp.o(.text) for __I$use$fp
    cdrcmple.o(.text) refers (Special) to iusefp.o(.text) for __I$use$fp
    d2f.o(.text) refers (Special) to iusefp.o(.text) for __I$use$fp
    d2f.o(.text) refers to fepilogue.o(.text) for _float_round
    cos_i.o(i.__kernel_cos) refers (Special) to iusefp.o(.text) for __I$use$fp
    cos_i.o(i.__kernel_cos) refers to dfixi.o(.text) for __aeabi_d2iz
    cos_i.o(i.__kernel_cos) refers to dmul.o(.text) for __aeabi_dmul
    cos_i.o(i.__kernel_cos) refers to poly.o(i.__kernel_poly) for __kernel_poly
    cos_i.o(i.__kernel_cos) refers to dadd.o(.text) for __aeabi_dsub
    cos_i.o(i.__kernel_cos) refers to cos_i.o(.constdata) for .constdata
    cos_i.o(.constdata) refers (Special) to iusefp.o(.text) for __I$use$fp
    dunder.o(i.__mathlib_dbl_divzero) refers to ddiv.o(.text) for __aeabi_ddiv
    dunder.o(i.__mathlib_dbl_infnan) refers to dadd.o(.text) for __aeabi_dadd
    dunder.o(i.__mathlib_dbl_infnan2) refers to dadd.o(.text) for __aeabi_dadd
    dunder.o(i.__mathlib_dbl_invalid) refers to ddiv.o(.text) for __aeabi_ddiv
    dunder.o(i.__mathlib_dbl_overflow) refers to dmul.o(.text) for __aeabi_dmul
    dunder.o(i.__mathlib_dbl_posinfnan) refers to dmul.o(.text) for __aeabi_dmul
    dunder.o(i.__mathlib_dbl_underflow) refers to dmul.o(.text) for __aeabi_dmul
    fpclassify.o(i.__ARM_fpclassify) refers (Special) to iusefp.o(.text) for __I$use$fp
    fpclassifyf.o(i.__ARM_fpclassifyf) refers (Special) to iusefp.o(.text) for __I$use$fp
    poly.o(i.__kernel_poly) refers (Special) to iusefp.o(.text) for __I$use$fp
    poly.o(i.__kernel_poly) refers to dmul.o(.text) for __aeabi_dmul
    poly.o(i.__kernel_poly) refers to dadd.o(.text) for __aeabi_dadd
    qnan.o(.constdata) refers (Special) to iusefp.o(.text) for __I$use$fp
    rred.o(i.__ieee754_rem_pio2) refers (Special) to iusefp.o(.text) for __I$use$fp
    rred.o(i.__ieee754_rem_pio2) refers to dadd.o(.text) for __aeabi_dsub
    rred.o(i.__ieee754_rem_pio2) refers to fabs.o(i.fabs) for fabs
    rred.o(i.__ieee754_rem_pio2) refers to dmul.o(.text) for __aeabi_dmul
    rred.o(i.__ieee754_rem_pio2) refers to dfixi.o(.text) for __aeabi_d2iz
    rred.o(i.__ieee754_rem_pio2) refers to dflti.o(.text) for __aeabi_i2d
    rred.o(i.__ieee754_rem_pio2) refers to dfltui.o(.text) for __aeabi_ui2d
    rred.o(i.__ieee754_rem_pio2) refers to rred.o(.constdata) for .constdata
    rred.o(i.__use_accurate_range_reduction) refers (Special) to iusefp.o(.text) for __I$use$fp
    rred.o(.constdata) refers (Special) to iusefp.o(.text) for __I$use$fp
    rredf.o(i.__mathlib_rredf2) refers (Special) to iusefp.o(.text) for __I$use$fp
    rredf.o(i.__mathlib_rredf2) refers to rredf.o(.constdata) for .constdata
    rredf.o(.constdata) refers (Special) to iusefp.o(.text) for __I$use$fp
    sin_i.o(i.__kernel_sin) refers (Special) to iusefp.o(.text) for __I$use$fp
    sin_i.o(i.__kernel_sin) refers to fpclassify.o(i.__ARM_fpclassify) for __ARM_fpclassify
    sin_i.o(i.__kernel_sin) refers to dunder.o(i.__mathlib_dbl_underflow) for __mathlib_dbl_underflow
    sin_i.o(i.__kernel_sin) refers to dmul.o(.text) for __aeabi_dmul
    sin_i.o(i.__kernel_sin) refers to poly.o(i.__kernel_poly) for __kernel_poly
    sin_i.o(i.__kernel_sin) refers to dadd.o(.text) for __aeabi_dsub
    sin_i.o(i.__kernel_sin) refers to sin_i.o(.constdata) for .constdata
    sin_i.o(.constdata) refers (Special) to iusefp.o(.text) for __I$use$fp
    sin_i_x.o(i.____kernel_sin$lsc) refers (Special) to iusefp.o(.text) for __I$use$fp
    sin_i_x.o(i.____kernel_sin$lsc) refers to dmul.o(.text) for __aeabi_dmul
    sin_i_x.o(i.____kernel_sin$lsc) refers to poly.o(i.__kernel_poly) for __kernel_poly
    sin_i_x.o(i.____kernel_sin$lsc) refers to dadd.o(.text) for __aeabi_dsub
    sin_i_x.o(i.____kernel_sin$lsc) refers to sin_i_x.o(.constdata) for .constdata
    sin_i_x.o(.constdata) refers (Special) to iusefp.o(.text) for __I$use$fp
    entry2.o(.ARM.Collect$$$$00000001) refers to entry2.o(.ARM.Collect$$$$00002712) for __lit__00000000
    entry2.o(.ARM.Collect$$$$00002712) refers to arm_startup_nrf52840.o(STACK) for __initial_sp
    entry2.o(__vectab_stack_and_reset_area) refers to arm_startup_nrf52840.o(STACK) for __initial_sp
    entry2.o(__vectab_stack_and_reset_area) refers to entry.o(.ARM.Collect$$$$00000000) for __main
    entry5.o(.ARM.Collect$$$$00000004) refers to init.o(.text) for __scatterload
    entry9a.o(.ARM.Collect$$$$0000000B) refers to main.o(.text) for main
    entry9b.o(.ARM.Collect$$$$0000000C) refers to main.o(.text) for main
    uldiv.o(.text) refers to llushr.o(.text) for __aeabi_llsr
    uldiv.o(.text) refers to llshl.o(.text) for __aeabi_llsl
    errno.o(i.__aeabi_errno_addr) refers to errno.o(.data) for .data
    errno.o(i.__read_errno) refers to errno.o(.data) for .data
    errno.o(i.__set_errno) refers to errno.o(.data) for .data
    depilogue.o(.text) refers to llshl.o(.text) for __aeabi_llsl
    depilogue.o(.text) refers to llushr.o(.text) for __aeabi_llsr
    dsqrt.o(.text) refers to llushr.o(.text) for __aeabi_llsr
    dsqrt.o(.text) refers to depilogue.o(.text) for _double_round
    dfixul.o(.text) refers to llushr.o(.text) for __aeabi_llsr
    dfixul.o(.text) refers to llshl.o(.text) for __aeabi_llsl
    init.o(.text) refers to entry5.o(.ARM.Collect$$$$00000004) for __main_after_scatterload
    dfltui.o(.text) refers to depilogue.o(.text) for _double_epilogue


==============================================================================

Removing Unused input sections from the image.

    Removing main.o(.rev16_text), (4 bytes).
    Removing main.o(.revsh_text), (4 bytes).
    Removing main.o(.rrx_text), (6 bytes).
    Removing main.o(.data), (1 bytes).
    Removing nrf_drv_twi.o(.rev16_text), (4 bytes).
    Removing nrf_drv_twi.o(.revsh_text), (4 bytes).
    Removing nrf_drv_twi.o(.rrx_text), (6 bytes).
    Removing nrf_drv_twi.o(.constdata), (17 bytes).
    Removing nrf_drv_twi.o(.constdata), (10 bytes).
    Removing nrf_drv_twi.o(.constdata), (17 bytes).
    Removing nrf_drv_mpu_twi.o(.rev16_text), (4 bytes).
    Removing nrf_drv_mpu_twi.o(.revsh_text), (4 bytes).
    Removing nrf_drv_mpu_twi.o(.rrx_text), (6 bytes).
    Removing app_mpu.o(.rev16_text), (4 bytes).
    Removing app_mpu.o(.revsh_text), (4 bytes).
    Removing app_mpu.o(.rrx_text), (6 bytes).
    Removing nrf_drv_inv_dmp.o(.rev16_text), (4 bytes).
    Removing nrf_drv_inv_dmp.o(.revsh_text), (4 bytes).
    Removing nrf_drv_inv_dmp.o(.rrx_text), (6 bytes).
    Removing boards.o(.rev16_text), (4 bytes).
    Removing boards.o(.revsh_text), (4 bytes).
    Removing boards.o(.rrx_text), (6 bytes).
    Removing nrf_drv_clock.o(.rev16_text), (4 bytes).
    Removing nrf_drv_clock.o(.revsh_text), (4 bytes).
    Removing nrf_drv_clock.o(.rrx_text), (6 bytes).
    Removing nrf_drv_clock.o(.constdata), (19 bytes).
    Removing nrf_drv_clock.o(.constdata), (32 bytes).
    Removing nrf_drv_clock.o(.constdata), (32 bytes).
    Removing nrf_drv_clock.o(.constdata), (29 bytes).
    Removing nrf_drv_common.o(.rev16_text), (4 bytes).
    Removing nrf_drv_common.o(.revsh_text), (4 bytes).
    Removing nrf_drv_common.o(.rrx_text), (6 bytes).
    Removing nrf_drv_uart.o(.rev16_text), (4 bytes).
    Removing nrf_drv_uart.o(.revsh_text), (4 bytes).
    Removing nrf_drv_uart.o(.rrx_text), (6 bytes).
    Removing nrf_drv_uart.o(.constdata), (18 bytes).
    Removing nrf_drv_uart.o(.constdata), (25 bytes).
    Removing nrf_drv_uart.o(.constdata), (26 bytes).
    Removing nrf_drv_uart.o(.constdata), (16 bytes).
    Removing nrf_drv_uart.o(.constdata), (25 bytes).
    Removing nrf_drv_uart.o(.constdata), (26 bytes).
    Removing nrf_drv_uart.o(.constdata), (16 bytes).
    Removing nrf_drv_gpiote.o(.rev16_text), (4 bytes).
    Removing nrf_drv_gpiote.o(.revsh_text), (4 bytes).
    Removing nrf_drv_gpiote.o(.rrx_text), (6 bytes).
    Removing app_timer_1.o(.rev16_text), (4 bytes).
    Removing app_timer_1.o(.revsh_text), (4 bytes).
    Removing app_timer_1.o(.rrx_text), (6 bytes).
    Removing app_error.o(.rev16_text), (4 bytes).
    Removing app_error.o(.revsh_text), (4 bytes).
    Removing app_error.o(.rrx_text), (6 bytes).
    Removing app_error_weak.o(.rev16_text), (4 bytes).
    Removing app_error_weak.o(.revsh_text), (4 bytes).
    Removing app_error_weak.o(.rrx_text), (6 bytes).
    Removing app_fifo.o(.rev16_text), (4 bytes).
    Removing app_fifo.o(.revsh_text), (4 bytes).
    Removing app_fifo.o(.rrx_text), (6 bytes).
    Removing app_uart_fifo.o(.rev16_text), (4 bytes).
    Removing app_uart_fifo.o(.revsh_text), (4 bytes).
    Removing app_uart_fifo.o(.rrx_text), (6 bytes).
    Removing app_util_platform.o(.rev16_text), (4 bytes).
    Removing app_util_platform.o(.revsh_text), (4 bytes).
    Removing app_util_platform.o(.rrx_text), (6 bytes).
    Removing nrf_assert.o(.rev16_text), (4 bytes).
    Removing nrf_assert.o(.revsh_text), (4 bytes).
    Removing nrf_assert.o(.rrx_text), (6 bytes).
    Removing nrf_assert.o(.text), (22 bytes).
    Removing nrf_strerror.o(.rev16_text), (4 bytes).
    Removing nrf_strerror.o(.revsh_text), (4 bytes).
    Removing nrf_strerror.o(.rrx_text), (6 bytes).
    Removing retarget.o(.rev16_text), (4 bytes).
    Removing retarget.o(.revsh_text), (4 bytes).
    Removing retarget.o(.rrx_text), (6 bytes).
    Removing retarget.o(.data), (4 bytes).
    Removing nrf_log_backend_serial.o(.rev16_text), (4 bytes).
    Removing nrf_log_backend_serial.o(.revsh_text), (4 bytes).
    Removing nrf_log_backend_serial.o(.rrx_text), (6 bytes).
    Removing nrf_log_backend_serial.o(.constdata), (5 bytes).
    Removing nrf_log_frontend.o(.rev16_text), (4 bytes).
    Removing nrf_log_frontend.o(.revsh_text), (4 bytes).
    Removing nrf_log_frontend.o(.rrx_text), (6 bytes).
    Removing segger_rtt.o(.rev16_text), (4 bytes).
    Removing segger_rtt.o(.revsh_text), (4 bytes).
    Removing segger_rtt.o(.rrx_text), (6 bytes).
    Removing segger_rtt.o(.text), (1560 bytes).
    Removing segger_rtt.o(.bss), (200 bytes).
    Removing segger_rtt.o(.data), (17 bytes).
    Removing mlmath.o(.text), (44 bytes).
    Removing inv_mpu_dmp_motion_driver.o(.rev16_text), (4 bytes).
    Removing inv_mpu_dmp_motion_driver.o(.revsh_text), (4 bytes).
    Removing inv_mpu_dmp_motion_driver.o(.rrx_text), (6 bytes).
    Removing inv_mpu.o(.rev16_text), (4 bytes).
    Removing inv_mpu.o(.revsh_text), (4 bytes).
    Removing inv_mpu.o(.rrx_text), (6 bytes).
    Removing system_nrf52840.o(.rev16_text), (4 bytes).
    Removing system_nrf52840.o(.revsh_text), (4 bytes).
    Removing system_nrf52840.o(.rrx_text), (6 bytes).
    Removing fast_no_motion.o(.constdata), (22 bytes).
    Removing accel_auto_cal.o(.constdata), (35 bytes).
    Removing dneg.o(.text), (6 bytes).
    Removing dscalb.o(.text), (46 bytes).

101 unused section(s) (total 2620 bytes) removed from the image.

==============================================================================

Image Symbol Table

    Local Symbols

    Symbol Name                              Value     Ov Type        Size  Object(Section)

    ../clib/microlib/ctype/ctype.c           0x00000000   Number         0  isxdigit_o.o ABSOLUTE
    ../clib/microlib/ctype/ctype.c           0x00000000   Number         0  isblank_o.o ABSOLUTE
    ../clib/microlib/ctype/ctype.c           0x00000000   Number         0  isalpha_o.o ABSOLUTE
    ../clib/microlib/ctype/ctype.c           0x00000000   Number         0  iscntrl_o.o ABSOLUTE
    ../clib/microlib/ctype/ctype.c           0x00000000   Number         0  isdigit_o.o ABSOLUTE
    ../clib/microlib/ctype/ctype.c           0x00000000   Number         0  isalnum_o.o ABSOLUTE
    ../clib/microlib/ctype/ctype.c           0x00000000   Number         0  isgraph_o.o ABSOLUTE
    ../clib/microlib/ctype/ctype.c           0x00000000   Number         0  islower_o.o ABSOLUTE
    ../clib/microlib/ctype/ctype.c           0x00000000   Number         0  isprint_o.o ABSOLUTE
    ../clib/microlib/ctype/ctype.c           0x00000000   Number         0  isupper_o.o ABSOLUTE
    ../clib/microlib/ctype/ctype.c           0x00000000   Number         0  isspace_o.o ABSOLUTE
    ../clib/microlib/ctype/ctype.c           0x00000000   Number         0  ctype_o.o ABSOLUTE
    ../clib/microlib/ctype/ctype.c           0x00000000   Number         0  ispunct_o.o ABSOLUTE
    ../clib/microlib/division.c              0x00000000   Number         0  uldiv.o ABSOLUTE
    ../clib/microlib/division.c              0x00000000   Number         0  ldiv.o ABSOLUTE
    ../clib/microlib/division.c              0x00000000   Number         0  uidiv.o ABSOLUTE
    ../clib/microlib/errno.c                 0x00000000   Number         0  errno.o ABSOLUTE
    ../clib/microlib/init/entry.s            0x00000000   Number         0  entry10b.o ABSOLUTE
    ../clib/microlib/init/entry.s            0x00000000   Number         0  entry10a.o ABSOLUTE
    ../clib/microlib/init/entry.s            0x00000000   Number         0  entry9b.o ABSOLUTE
    ../clib/microlib/init/entry.s            0x00000000   Number         0  entry9a.o ABSOLUTE
    ../clib/microlib/init/entry.s            0x00000000   Number         0  entry.o ABSOLUTE
    ../clib/microlib/init/entry.s            0x00000000   Number         0  entry8b.o ABSOLUTE
    ../clib/microlib/init/entry.s            0x00000000   Number         0  entry11a.o ABSOLUTE
    ../clib/microlib/init/entry.s            0x00000000   Number         0  entry8a.o ABSOLUTE
    ../clib/microlib/init/entry.s            0x00000000   Number         0  entry7b.o ABSOLUTE
    ../clib/microlib/init/entry.s            0x00000000   Number         0  entry7a.o ABSOLUTE
    ../clib/microlib/init/entry.s            0x00000000   Number         0  entry5.o ABSOLUTE
    ../clib/microlib/init/entry.s            0x00000000   Number         0  entry2.o ABSOLUTE
    ../clib/microlib/init/entry.s            0x00000000   Number         0  entry11b.o ABSOLUTE
    ../clib/microlib/longlong.c              0x00000000   Number         0  llshl.o ABSOLUTE
    ../clib/microlib/longlong.c              0x00000000   Number         0  llushr.o ABSOLUTE
    ../clib/microlib/longlong.c              0x00000000   Number         0  llsshr.o ABSOLUTE
    ../clib/microlib/malloc/malloc.c         0x00000000   Number         0  malloca.o ABSOLUTE
    ../clib/microlib/malloc/malloc.c         0x00000000   Number         0  mallocra.o ABSOLUTE
    ../clib/microlib/malloc/malloc.c         0x00000000   Number         0  mallocr.o ABSOLUTE
    ../clib/microlib/malloc/malloc.c         0x00000000   Number         0  malloc.o ABSOLUTE
    ../clib/microlib/malloc/mvars.c          0x00000000   Number         0  mvars.o ABSOLUTE
    ../clib/microlib/printf/printf.c         0x00000000   Number         0  printf8.o ABSOLUTE
    ../clib/microlib/printf/printf.c         0x00000000   Number         0  printfa.o ABSOLUTE
    ../clib/microlib/printf/printf.c         0x00000000   Number         0  printf4.o ABSOLUTE
    ../clib/microlib/printf/printf.c         0x00000000   Number         0  printfb.o ABSOLUTE
    ../clib/microlib/printf/printf.c         0x00000000   Number         0  printf0.o ABSOLUTE
    ../clib/microlib/printf/printf.c         0x00000000   Number         0  printf1.o ABSOLUTE
    ../clib/microlib/printf/printf.c         0x00000000   Number         0  printf2.o ABSOLUTE
    ../clib/microlib/printf/printf.c         0x00000000   Number         0  printf3.o ABSOLUTE
    ../clib/microlib/printf/printf.c         0x00000000   Number         0  printf5.o ABSOLUTE
    ../clib/microlib/printf/printf.c         0x00000000   Number         0  printf6.o ABSOLUTE
    ../clib/microlib/printf/printf.c         0x00000000   Number         0  printf7.o ABSOLUTE
    ../clib/microlib/printf/stubs.s          0x00000000   Number         0  stubs.o ABSOLUTE
    ../clib/microlib/string/memcmp.c         0x00000000   Number         0  memcmp.o ABSOLUTE
    ../clib/microlib/string/memcpy.c         0x00000000   Number         0  memcpya.o ABSOLUTE
    ../clib/microlib/string/memcpy.c         0x00000000   Number         0  memmovea.o ABSOLUTE
    ../clib/microlib/string/memcpy.c         0x00000000   Number         0  memcpyb.o ABSOLUTE
    ../clib/microlib/string/memcpy.c         0x00000000   Number         0  memmoveb.o ABSOLUTE
    ../clib/microlib/string/memset.c         0x00000000   Number         0  memseta.o ABSOLUTE
    ../clib/microlib/string/strcpy.c         0x00000000   Number         0  strcpy.o ABSOLUTE
    ../clib/microlib/string/strlen.c         0x00000000   Number         0  strlen.o ABSOLUTE
    ../clib/microlib/stubs.s                 0x00000000   Number         0  iusefp.o ABSOLUTE
    ../fplib/microlib/d2f.c                  0x00000000   Number         0  d2f.o ABSOLUTE
    ../fplib/microlib/f2d.c                  0x00000000   Number         0  f2d.o ABSOLUTE
    ../fplib/microlib/fpadd.c                0x00000000   Number         0  dadd.o ABSOLUTE
    ../fplib/microlib/fpdiv.c                0x00000000   Number         0  ddiv.o ABSOLUTE
    ../fplib/microlib/fpepilogue.c           0x00000000   Number         0  fepilogue.o ABSOLUTE
    ../fplib/microlib/fpepilogue.c           0x00000000   Number         0  depilogue.o ABSOLUTE
    ../fplib/microlib/fpfix.c                0x00000000   Number         0  dfixul.o ABSOLUTE
    ../fplib/microlib/fpfix.c                0x00000000   Number         0  dfixi.o ABSOLUTE
    ../fplib/microlib/fpfix.c                0x00000000   Number         0  ffixl.o ABSOLUTE
    ../fplib/microlib/fpflt.c                0x00000000   Number         0  dfltui.o ABSOLUTE
    ../fplib/microlib/fpflt.c                0x00000000   Number         0  dflti.o ABSOLUTE
    ../fplib/microlib/fpflt.c                0x00000000   Number         0  ffltl.o ABSOLUTE
    ../fplib/microlib/fpmul.c                0x00000000   Number         0  dmul.o ABSOLUTE
    ../fplib/microlib/fpneg.c                0x00000000   Number         0  dneg.o ABSOLUTE
    ../fplib/microlib/fpscalb.c              0x00000000   Number         0  dscalb.o ABSOLUTE
    ../fplib/microlib/fpsqrt.c               0x00000000   Number         0  dsqrt.o ABSOLUTE
    ../mathlib/acos.c                        0x00000000   Number         0  acos_x.o ABSOLUTE
    ../mathlib/acos.c                        0x00000000   Number         0  acos.o ABSOLUTE
    ../mathlib/acosf.c                       0x00000000   Number         0  acosf.o ABSOLUTE
    ../mathlib/acosf.c                       0x00000000   Number         0  acosf_x.o ABSOLUTE
    ../mathlib/asin.c                        0x00000000   Number         0  asin_x.o ABSOLUTE
    ../mathlib/asin.c                        0x00000000   Number         0  asin.o ABSOLUTE
    ../mathlib/asinf.c                       0x00000000   Number         0  asinf_x.o ABSOLUTE
    ../mathlib/asinf.c                       0x00000000   Number         0  asinf.o ABSOLUTE
    ../mathlib/atan.c                        0x00000000   Number         0  atan_x.o ABSOLUTE
    ../mathlib/atan.c                        0x00000000   Number         0  atan.o ABSOLUTE
    ../mathlib/atan2.c                       0x00000000   Number         0  atan2_x.o ABSOLUTE
    ../mathlib/atan2.c                       0x00000000   Number         0  atan2.o ABSOLUTE
    ../mathlib/atan2f.c                      0x00000000   Number         0  atan2f_x.o ABSOLUTE
    ../mathlib/atan2f.c                      0x00000000   Number         0  atan2f.o ABSOLUTE
    ../mathlib/ceil.c                        0x00000000   Number         0  ceil.o ABSOLUTE
    ../mathlib/cos.c                         0x00000000   Number         0  cos.o ABSOLUTE
    ../mathlib/cos.c                         0x00000000   Number         0  cos_x.o ABSOLUTE
    ../mathlib/cos_i.c                       0x00000000   Number         0  cos_i.o ABSOLUTE
    ../mathlib/cosf.c                        0x00000000   Number         0  cosf_x.o ABSOLUTE
    ../mathlib/cosf.c                        0x00000000   Number         0  cosf.o ABSOLUTE
    ../mathlib/dunder.c                      0x00000000   Number         0  dunder.o ABSOLUTE
    ../mathlib/fabs.c                        0x00000000   Number         0  fabs.o ABSOLUTE
    ../mathlib/floor.c                       0x00000000   Number         0  floor.o ABSOLUTE
    ../mathlib/fpclassify.c                  0x00000000   Number         0  fpclassify.o ABSOLUTE
    ../mathlib/fpclassifyf.c                 0x00000000   Number         0  fpclassifyf.o ABSOLUTE
    ../mathlib/funder.c                      0x00000000   Number         0  funder.o ABSOLUTE
    ../mathlib/log.c                         0x00000000   Number         0  log.o ABSOLUTE
    ../mathlib/log.c                         0x00000000   Number         0  log_x.o ABSOLUTE
    ../mathlib/poly.c                        0x00000000   Number         0  poly.o ABSOLUTE
    ../mathlib/pow.c                         0x00000000   Number         0  pow.o ABSOLUTE
    ../mathlib/pow.c                         0x00000000   Number         0  pow_x.o ABSOLUTE
    ../mathlib/qnan.c                        0x00000000   Number         0  qnan.o ABSOLUTE
    ../mathlib/rred.c                        0x00000000   Number         0  rred.o ABSOLUTE
    ../mathlib/rredf.c                       0x00000000   Number         0  rredf.o ABSOLUTE
    ../mathlib/sin.c                         0x00000000   Number         0  sin.o ABSOLUTE
    ../mathlib/sin.c                         0x00000000   Number         0  sin_x.o ABSOLUTE
    ../mathlib/sin_i.c                       0x00000000   Number         0  sin_i_x.o ABSOLUTE
    ../mathlib/sin_i.c                       0x00000000   Number         0  sin_i.o ABSOLUTE
    ../mathlib/sinf.c                        0x00000000   Number         0  sinf.o ABSOLUTE
    ../mathlib/sinf.c                        0x00000000   Number         0  sinf_x.o ABSOLUTE
    ../mathlib/sqrt.c                        0x00000000   Number         0  sqrt.o ABSOLUTE
    ../mathlib/sqrt.c                        0x00000000   Number         0  sqrt_x.o ABSOLUTE
    ../mathlib/sqrtf.c                       0x00000000   Number         0  sqrtf_x.o ABSOLUTE
    ../mathlib/sqrtf.c                       0x00000000   Number         0  sqrtf.o ABSOLUTE
    ..\..\..\..\..\..\components\boards\boards.c 0x00000000   Number         0  boards.o ABSOLUTE
    ..\..\..\..\..\..\components\drivers_nrf\clock\nrf_drv_clock.c 0x00000000   Number         0  nrf_drv_clock.o ABSOLUTE
    ..\..\..\..\..\..\components\drivers_nrf\common\nrf_drv_common.c 0x00000000   Number         0  nrf_drv_common.o ABSOLUTE
    ..\..\..\..\..\..\components\drivers_nrf\gpiote\nrf_drv_gpiote.c 0x00000000   Number         0  nrf_drv_gpiote.o ABSOLUTE
    ..\..\..\..\..\..\components\drivers_nrf\twi_master\nrf_drv_twi.c 0x00000000   Number         0  nrf_drv_twi.o ABSOLUTE
    ..\..\..\..\..\..\components\drivers_nrf\uart\nrf_drv_uart.c 0x00000000   Number         0  nrf_drv_uart.o ABSOLUTE
    ..\..\..\..\..\..\components\libraries\fifo\app_fifo.c 0x00000000   Number         0  app_fifo.o ABSOLUTE
    ..\..\..\..\..\..\components\libraries\log\src\nrf_log_backend_serial.c 0x00000000   Number         0  nrf_log_backend_serial.o ABSOLUTE
    ..\..\..\..\..\..\components\libraries\log\src\nrf_log_frontend.c 0x00000000   Number         0  nrf_log_frontend.o ABSOLUTE
    ..\..\..\..\..\..\components\libraries\strerror\nrf_strerror.c 0x00000000   Number         0  nrf_strerror.o ABSOLUTE
    ..\..\..\..\..\..\components\libraries\timer\app_timer.c 0x00000000   Number         0  app_timer_1.o ABSOLUTE
    ..\..\..\..\..\..\components\libraries\uart\app_uart_fifo.c 0x00000000   Number         0  app_uart_fifo.o ABSOLUTE
    ..\..\..\..\..\..\components\libraries\uart\retarget.c 0x00000000   Number         0  retarget.o ABSOLUTE
    ..\..\..\..\..\..\components\libraries\util\app_error.c 0x00000000   Number         0  app_error.o ABSOLUTE
    ..\..\..\..\..\..\components\libraries\util\app_error_weak.c 0x00000000   Number         0  app_error_weak.o ABSOLUTE
    ..\..\..\..\..\..\components\libraries\util\app_util_platform.c 0x00000000   Number         0  app_util_platform.o ABSOLUTE
    ..\..\..\..\..\..\components\libraries\util\nrf_assert.c 0x00000000   Number         0  nrf_assert.o ABSOLUTE
    ..\..\..\..\..\..\external\segger_rtt\RTT_Syscalls_KEIL.c 0x00000000   Number         0  rtt_syscalls_keil.o ABSOLUTE
    ..\..\..\..\..\..\external\segger_rtt\SEGGER_RTT.c 0x00000000   Number         0  segger_rtt.o ABSOLUTE
    ..\..\..\..\..\..\external\segger_rtt\SEGGER_RTT_printf.c 0x00000000   Number         0  segger_rtt_printf.o ABSOLUTE
    ..\..\..\app_mpu.c                       0x00000000   Number         0  app_mpu.o ABSOLUTE
    ..\..\..\eMD-6.0\core\driver\eMPL\inv_mpu.c 0x00000000   Number         0  inv_mpu.o ABSOLUTE
    ..\..\..\eMD-6.0\core\driver\eMPL\inv_mpu_dmp_motion_driver.c 0x00000000   Number         0  inv_mpu_dmp_motion_driver.o ABSOLUTE
    ..\..\..\eMD-6.0\core\eMPL-hal\eMPL_outputs.c 0x00000000   Number         0  empl_outputs.o ABSOLUTE
    ..\..\..\eMD-6.0\core\mllite\data_builder.c 0x00000000   Number         0  data_builder.o ABSOLUTE
    ..\..\..\eMD-6.0\core\mllite\hal_outputs.c 0x00000000   Number         0  hal_outputs.o ABSOLUTE
    ..\..\..\eMD-6.0\core\mllite\message_layer.c 0x00000000   Number         0  message_layer.o ABSOLUTE
    ..\..\..\eMD-6.0\core\mllite\ml_math_func.c 0x00000000   Number         0  ml_math_func.o ABSOLUTE
    ..\..\..\eMD-6.0\core\mllite\mlmath.c    0x00000000   Number         0  mlmath.o ABSOLUTE
    ..\..\..\eMD-6.0\core\mllite\mpl.c       0x00000000   Number         0  mpl.o ABSOLUTE
    ..\..\..\eMD-6.0\core\mllite\results_holder.c 0x00000000   Number         0  results_holder.o ABSOLUTE
    ..\..\..\eMD-6.0\core\mllite\start_manager.c 0x00000000   Number         0  start_manager.o ABSOLUTE
    ..\..\..\eMD-6.0\core\mllite\storage_manager.c 0x00000000   Number         0  storage_manager.o ABSOLUTE
    ..\..\..\main.c                          0x00000000   Number         0  main.o ABSOLUTE
    ..\..\..\nrf_drv_inv_dmp.c               0x00000000   Number         0  nrf_drv_inv_dmp.o ABSOLUTE
    ..\..\..\nrf_drv_mpu_twi.c               0x00000000   Number         0  nrf_drv_mpu_twi.o ABSOLUTE
    ..\\..\\..\\..\\..\\..\\components\\boards\\boards.c 0x00000000   Number         0  boards.o ABSOLUTE
    ..\\..\\..\\..\\..\\..\\components\\drivers_nrf\\clock\\nrf_drv_clock.c 0x00000000   Number         0  nrf_drv_clock.o ABSOLUTE
    ..\\..\\..\\..\\..\\..\\components\\drivers_nrf\\common\\nrf_drv_common.c 0x00000000   Number         0  nrf_drv_common.o ABSOLUTE
    ..\\..\\..\\..\\..\\..\\components\\drivers_nrf\\gpiote\\nrf_drv_gpiote.c 0x00000000   Number         0  nrf_drv_gpiote.o ABSOLUTE
    ..\\..\\..\\..\\..\\..\\components\\drivers_nrf\\twi_master\\nrf_drv_twi.c 0x00000000   Number         0  nrf_drv_twi.o ABSOLUTE
    ..\\..\\..\\..\\..\\..\\components\\drivers_nrf\\uart\\nrf_drv_uart.c 0x00000000   Number         0  nrf_drv_uart.o ABSOLUTE
    ..\\..\\..\\..\\..\\..\\components\\libraries\\fifo\\app_fifo.c 0x00000000   Number         0  app_fifo.o ABSOLUTE
    ..\\..\\..\\..\\..\\..\\components\\libraries\\log\\src\\nrf_log_backend_serial.c 0x00000000   Number         0  nrf_log_backend_serial.o ABSOLUTE
    ..\\..\\..\\..\\..\\..\\components\\libraries\\log\\src\\nrf_log_frontend.c 0x00000000   Number         0  nrf_log_frontend.o ABSOLUTE
    ..\\..\\..\\..\\..\\..\\components\\libraries\\strerror\\nrf_strerror.c 0x00000000   Number         0  nrf_strerror.o ABSOLUTE
    ..\\..\\..\\..\\..\\..\\components\\libraries\\timer\\app_timer.c 0x00000000   Number         0  app_timer_1.o ABSOLUTE
    ..\\..\\..\\..\\..\\..\\components\\libraries\\uart\\app_uart_fifo.c 0x00000000   Number         0  app_uart_fifo.o ABSOLUTE
    ..\\..\\..\\..\\..\\..\\components\\libraries\\uart\\retarget.c 0x00000000   Number         0  retarget.o ABSOLUTE
    ..\\..\\..\\..\\..\\..\\components\\libraries\\util\\app_error.c 0x00000000   Number         0  app_error.o ABSOLUTE
    ..\\..\\..\\..\\..\\..\\components\\libraries\\util\\app_error_weak.c 0x00000000   Number         0  app_error_weak.o ABSOLUTE
    ..\\..\\..\\..\\..\\..\\components\\libraries\\util\\app_util_platform.c 0x00000000   Number         0  app_util_platform.o ABSOLUTE
    ..\\..\\..\\..\\..\\..\\components\\libraries\\util\\nrf_assert.c 0x00000000   Number         0  nrf_assert.o ABSOLUTE
    ..\\..\\..\\..\\..\\..\\external\\segger_rtt\\SEGGER_RTT.c 0x00000000   Number         0  segger_rtt.o ABSOLUTE
    ..\\..\\..\\app_mpu.c                    0x00000000   Number         0  app_mpu.o ABSOLUTE
    ..\\..\\..\\eMD-6.0\\core\\driver\\eMPL\\inv_mpu.c 0x00000000   Number         0  inv_mpu.o ABSOLUTE
    ..\\..\\..\\eMD-6.0\\core\\driver\\eMPL\\inv_mpu_dmp_motion_driver.c 0x00000000   Number         0  inv_mpu_dmp_motion_driver.o ABSOLUTE
    ..\\..\\..\\main.c                       0x00000000   Number         0  main.o ABSOLUTE
    ..\\..\\..\\nrf_drv_inv_dmp.c            0x00000000   Number         0  nrf_drv_inv_dmp.o ABSOLUTE
    ..\\..\\..\\nrf_drv_mpu_twi.c            0x00000000   Number         0  nrf_drv_mpu_twi.o ABSOLUTE
    MPL_LIB\mpl\accel_auto_cal.c             0x00000000   Number         0  accel_auto_cal.o ABSOLUTE
    MPL_LIB\mpl\compass_vec_cal.c            0x00000000   Number         0  compass_vec_cal.o ABSOLUTE
    MPL_LIB\mpl\fast_no_motion.c             0x00000000   Number         0  fast_no_motion.o ABSOLUTE
    MPL_LIB\mpl\fusion_9axis.c               0x00000000   Number         0  fusion_9axis.o ABSOLUTE
    MPL_LIB\mpl\mag_disturb.c                0x00000000   Number         0  mag_disturb.o ABSOLUTE
    MPL_LIB\mpl\quaternion_supervisor.c      0x00000000   Number         0  quaternion_supervisor.o ABSOLUTE
    RTE\Device\nRF52840_xxAA\arm_startup_nrf52840.s 0x00000000   Number         0  arm_startup_nrf52840.o ABSOLUTE
    RTE\Device\nRF52840_xxAA\system_nrf52840.c 0x00000000   Number         0  system_nrf52840.o ABSOLUTE
    RTE\\Device\\nRF52840_xxAA\\system_nrf52840.c 0x00000000   Number         0  system_nrf52840.o ABSOLUTE
    cdcmple.s                                0x00000000   Number         0  cdcmple.o ABSOLUTE
    cdrcmple.s                               0x00000000   Number         0  cdrcmple.o ABSOLUTE
    dc.s                                     0x00000000   Number         0  dc.o ABSOLUTE
    handlers.s                               0x00000000   Number         0  handlers.o ABSOLUTE
    init.s                                   0x00000000   Number         0  init.o ABSOLUTE
    RESET                                    0x00022000   Section      512  arm_startup_nrf52840.o(RESET)
    .ARM.Collect$$$$00000000                 0x00022200   Section        0  entry.o(.ARM.Collect$$$$00000000)
    .ARM.Collect$$$$00000001                 0x00022200   Section        4  entry2.o(.ARM.Collect$$$$00000001)
    .ARM.Collect$$$$00000004                 0x00022204   Section        4  entry5.o(.ARM.Collect$$$$00000004)
    .ARM.Collect$$$$00000008                 0x00022208   Section        0  entry7b.o(.ARM.Collect$$$$00000008)
    .ARM.Collect$$$$0000000A                 0x00022208   Section        0  entry8b.o(.ARM.Collect$$$$0000000A)
    .ARM.Collect$$$$0000000B                 0x00022208   Section        8  entry9a.o(.ARM.Collect$$$$0000000B)
    .ARM.Collect$$$$0000000D                 0x00022210   Section        0  entry10a.o(.ARM.Collect$$$$0000000D)
    .ARM.Collect$$$$0000000F                 0x00022210   Section        0  entry11a.o(.ARM.Collect$$$$0000000F)
    .ARM.Collect$$$$00002712                 0x00022210   Section        4  entry2.o(.ARM.Collect$$$$00002712)
    __lit__00000000                          0x00022210   Data           4  entry2.o(.ARM.Collect$$$$00002712)
    .text                                    0x00022214   Section        0  main.o(.text)
    lfclk_request                            0x00022285   Thumb Code    22  main.o(.text)
    timer_a_handler                          0x0002229b   Thumb Code     2  main.o(.text)
    create_timers                            0x0002229d   Thumb Code    28  main.o(.text)
    pin_in_read                              0x000222b9   Thumb Code    10  main.o(.text)
    tap_cb                                   0x000222c3   Thumb Code     2  main.o(.text)
    android_orient_cb                        0x000222c5   Thumb Code     2  main.o(.text)
    GPIO_setup                               0x000222c7   Thumb Code    52  main.o(.text)
    read_from_mpl                            0x000222fb   Thumb Code   216  main.o(.text)
    nrf_delay_us                             0x000227eb   Thumb Code   132  main.o(.text)
    run_self_test                            0x0002286f   Thumb Code   186  main.o(.text)
    .text                                    0x00022978   Section        0  nrf_drv_twi.o(.text)
    nrf_delay_us                             0x00022979   Thumb Code   132  nrf_drv_twi.o(.text)
    twi_process_error                        0x000229fd   Thumb Code    30  nrf_drv_twi.o(.text)
    twi_clear_bus                            0x00022a1b   Thumb Code   164  nrf_drv_twi.o(.text)
    twim_xfer                                0x00022c07   Thumb Code   578  nrf_drv_twi.o(.text)
    irq_handler_twim                         0x00022ec7   Thumb Code   338  nrf_drv_twi.o(.text)
    nrf_twim_event_clear                     0x0002301f   Thumb Code    12  nrf_drv_twi.o(.text)
    nrf_twim_event_check                     0x0002302b   Thumb Code    10  nrf_drv_twi.o(.text)
    nrf_drv_is_in_RAM                        0x00023035   Thumb Code    16  nrf_drv_twi.o(.text)
    nrf_gpio_pin_port_decode                 0x00023045   Thumb Code    22  nrf_drv_twi.o(.text)
    nrf_gpio_pin_set                         0x0002305b   Thumb Code    20  nrf_drv_twi.o(.text)
    nrf_gpio_pin_clear                       0x0002306f   Thumb Code    20  nrf_drv_twi.o(.text)
    .text                                    0x00023098   Section        0  nrf_drv_mpu_twi.o(.text)
    nrf_drv_mpu_twi_event_handler            0x00023099   Thumb Code    42  nrf_drv_mpu_twi.o(.text)
    merge_register_and_data                  0x000230f1   Thumb Code    18  nrf_drv_mpu_twi.o(.text)
    .text                                    0x00023438   Section        0  app_mpu.o(.text)
    .text                                    0x00023544   Section        0  nrf_drv_inv_dmp.o(.text)
    .text                                    0x0002360c   Section        0  boards.o(.text)
    nrf_gpio_pin_write                       0x0002360d   Thumb Code    44  boards.o(.text)
    nrf_gpio_pin_port_decode                 0x00023773   Thumb Code    22  boards.o(.text)
    nrf_gpio_cfg                             0x00023789   Thumb Code    50  boards.o(.text)
    .text                                    0x000237c4   Section        0  nrf_drv_clock.o(.text)
    lfclk_start                              0x000237c5   Thumb Code    24  nrf_drv_clock.o(.text)
    lfclk_stop                               0x000237dd   Thumb Code    28  nrf_drv_clock.o(.text)
    hfclk_start                              0x000237f9   Thumb Code    22  nrf_drv_clock.o(.text)
    hfclk_stop                               0x0002380f   Thumb Code    26  nrf_drv_clock.o(.text)
    item_enqueue                             0x0002388f   Thumb Code    26  nrf_drv_clock.o(.text)
    item_dequeue                             0x000238a9   Thumb Code    14  nrf_drv_clock.o(.text)
    nrf_clock_event_clear                    0x00023a13   Thumb Code    16  nrf_drv_clock.o(.text)
    nrf_clock_event_check                    0x00023a23   Thumb Code    14  nrf_drv_clock.o(.text)
    nrf_clock_hf_is_running                  0x00023a31   Thumb Code    26  nrf_drv_clock.o(.text)
    clock_clk_started_notify                 0x00023a4b   Thumb Code    38  nrf_drv_clock.o(.text)
    .text                                    0x00023a88   Section        0  nrf_drv_common.o(.text)
    .text                                    0x00023acc   Section        0  nrf_drv_uart.o(.text)
    rx_byte                                  0x00023c51   Thumb Code    52  nrf_drv_uart.o(.text)
    uart_irq_handler                         0x00023e51   Thumb Code   304  nrf_drv_uart.o(.text)
    nrf_uart_event_clear                     0x00023f95   Thumb Code    12  nrf_drv_uart.o(.text)
    nrf_uart_event_check                     0x00023fa1   Thumb Code    10  nrf_drv_uart.o(.text)
    nrf_uart_int_enable_check                0x00023fab   Thumb Code    12  nrf_drv_uart.o(.text)
    nrf_uarte_event_clear                    0x00023fb7   Thumb Code    12  nrf_drv_uart.o(.text)
    nrf_uarte_event_check                    0x00023fc3   Thumb Code    10  nrf_drv_uart.o(.text)
    nrf_drv_common_irq_disable               0x00023fcd   Thumb Code    22  nrf_drv_uart.o(.text)
    nrf_drv_get_IRQn                         0x00023fe3   Thumb Code     6  nrf_drv_uart.o(.text)
    nrf_drv_is_in_RAM                        0x00023fe9   Thumb Code    16  nrf_drv_uart.o(.text)
    apply_config                             0x00023ff9   Thumb Code   214  nrf_drv_uart.o(.text)
    interrupts_enable                        0x000240cf   Thumb Code   126  nrf_drv_uart.o(.text)
    pins_to_default                          0x0002414d   Thumb Code   122  nrf_drv_uart.o(.text)
    tx_byte                                  0x000241c7   Thumb Code    34  nrf_drv_uart.o(.text)
    nrf_drv_uart_tx_for_uart                 0x000241e9   Thumb Code   134  nrf_drv_uart.o(.text)
    rx_enable                                0x0002426f   Thumb Code    32  nrf_drv_uart.o(.text)
    nrf_drv_uart_rx_for_uart                 0x0002428f   Thumb Code   164  nrf_drv_uart.o(.text)
    nrf_drv_uart_rx_for_uarte                0x00024333   Thumb Code   184  nrf_drv_uart.o(.text)
    rx_done_event                            0x000243eb   Thumb Code    22  nrf_drv_uart.o(.text)
    tx_done_event                            0x00024401   Thumb Code    26  nrf_drv_uart.o(.text)
    uarte_irq_handler                        0x0002441b   Thumb Code   246  nrf_drv_uart.o(.text)
    nrf_gpio_cfg_output                      0x00024511   Thumb Code    20  nrf_drv_uart.o(.text)
    nrf_gpio_cfg_input                       0x00024525   Thumb Code    18  nrf_drv_uart.o(.text)
    nrf_gpio_cfg_default                     0x00024537   Thumb Code    18  nrf_drv_uart.o(.text)
    nrf_gpio_pin_set                         0x00024549   Thumb Code    20  nrf_drv_uart.o(.text)
    nrf_gpio_pin_port_decode                 0x0002455d   Thumb Code    22  nrf_drv_uart.o(.text)
    nrf_gpio_cfg                             0x00024573   Thumb Code    48  nrf_drv_uart.o(.text)
    .text                                    0x000245ac   Section        0  nrf_drv_gpiote.o(.text)
    channel_port_alloc                       0x000245ad   Thumb Code    78  nrf_drv_gpiote.o(.text)
    channel_free                             0x000245fb   Thumb Code    22  nrf_drv_gpiote.o(.text)
    nrf_gpiote_event_is_set                  0x00024d3b   Thumb Code    14  nrf_drv_gpiote.o(.text)
    nrf_gpiote_event_clear                   0x00024d49   Thumb Code    16  nrf_drv_gpiote.o(.text)
    nrf_gpio_pin_port_decode                 0x00024d59   Thumb Code    22  nrf_drv_gpiote.o(.text)
    nrf_gpio_cfg                             0x00024d6f   Thumb Code    50  nrf_drv_gpiote.o(.text)
    nrf_gpio_cfg_default                     0x00024da1   Thumb Code    18  nrf_drv_gpiote.o(.text)
    nrf_gpio_cfg_sense_set                   0x00024db3   Thumb Code    48  nrf_drv_gpiote.o(.text)
    nrf_gpio_pin_set                         0x00024de3   Thumb Code    20  nrf_drv_gpiote.o(.text)
    nrf_gpio_pin_clear                       0x00024df7   Thumb Code    20  nrf_drv_gpiote.o(.text)
    nrf_gpio_pin_read                        0x00024e0b   Thumb Code    22  nrf_drv_gpiote.o(.text)
    nrf_gpio_ports_read                      0x00024e21   Thumb Code    58  nrf_drv_gpiote.o(.text)
    nrf_bitmask_bit_is_set                   0x00024e5b   Thumb Code    16  nrf_drv_gpiote.o(.text)
    pin_in_use_by_te                         0x00024e6b   Thumb Code    20  nrf_drv_gpiote.o(.text)
    pin_in_use_by_port                       0x00024e7f   Thumb Code    20  nrf_drv_gpiote.o(.text)
    channel_port_get                         0x00024e93   Thumb Code    10  nrf_drv_gpiote.o(.text)
    .text                                    0x00024ea0   Section        0  app_timer_1.o(.text)
    nrf_delay_us                             0x00024ea1   Thumb Code   132  app_timer_1.o(.text)
    rtc1_init                                0x00024f25   Thumb Code    12  app_timer_1.o(.text)
    rtc1_start                               0x00024f31   Thumb Code    44  app_timer_1.o(.text)
    rtc1_stop                                0x00024f5d   Thumb Code    48  app_timer_1.o(.text)
    timer_list_insert                        0x00024f8d   Thumb Code    66  app_timer_1.o(.text)
    timer_list_remove                        0x00024fcf   Thumb Code    94  app_timer_1.o(.text)
    timer_timeouts_check_sched               0x0002502d   Thumb Code     6  app_timer_1.o(.text)
    timer_list_handler_sched                 0x00025033   Thumb Code     6  app_timer_1.o(.text)
    timeout_handler_exec                     0x00025039   Thumb Code     8  app_timer_1.o(.text)
    timer_timeouts_check                     0x00025041   Thumb Code   114  app_timer_1.o(.text)
    elapsed_ticks_acquire                    0x000250b3   Thumb Code    58  app_timer_1.o(.text)
    expired_timers_handler                   0x000250ed   Thumb Code    68  app_timer_1.o(.text)
    list_insertions_handler                  0x00025131   Thumb Code   236  app_timer_1.o(.text)
    compare_reg_update                       0x0002521d   Thumb Code   144  app_timer_1.o(.text)
    timer_list_handler                       0x000252ad   Thumb Code    62  app_timer_1.o(.text)
    user_op_enque                            0x000252eb   Thumb Code     6  app_timer_1.o(.text)
    user_op_alloc                            0x000252f1   Thumb Code    42  app_timer_1.o(.text)
    timer_start_op_schedule                  0x0002531b   Thumb Code    80  app_timer_1.o(.text)
    timer_stop_op_schedule                   0x0002536b   Thumb Code    56  app_timer_1.o(.text)
    NVIC_EnableIRQ                           0x000254a3   Thumb Code    22  app_timer_1.o(.text)
    NVIC_SetPendingIRQ                       0x000254b9   Thumb Code    22  app_timer_1.o(.text)
    NVIC_ClearPendingIRQ                     0x000254cf   Thumb Code    22  app_timer_1.o(.text)
    NVIC_SetPriority                         0x000254e5   Thumb Code    32  app_timer_1.o(.text)
    .text                                    0x00025518   Section        0  app_error.o(.text)
    .text                                    0x000255ac   Section        0  app_error_weak.o(.text)
    .text                                    0x0002560c   Section        0  app_fifo.o(.text)
    fifo_put                                 0x0002573b   Thumb Code    18  app_fifo.o(.text)
    fifo_get                                 0x0002574d   Thumb Code    20  app_fifo.o(.text)
    .text                                    0x00025760   Section        0  app_uart_fifo.o(.text)
    uart_event_handler                       0x00025761   Thumb Code   164  app_uart_fifo.o(.text)
    .text                                    0x00025950   Section        0  app_util_platform.o(.text)
    .text                                    0x000259c8   Section        0  nrf_strerror.o(.text)
    .text                                    0x00025a10   Section        0  retarget.o(.text)
    .text                                    0x00025a30   Section        0  nrf_log_backend_serial.o(.text)
    uart_event_handler                       0x00025a31   Thumb Code    12  nrf_log_backend_serial.o(.text)
    serial_is_busy                           0x00025aa5   Thumb Code     8  nrf_log_backend_serial.o(.text)
    serial_tx                                0x00025aad   Thumb Code    36  nrf_log_backend_serial.o(.text)
    serial_get_byte                          0x00025ad1   Thumb Code    50  nrf_log_backend_serial.o(.text)
    buf_len_update                           0x00025b03   Thumb Code    18  nrf_log_backend_serial.o(.text)
    timestamp_process                        0x00025b15   Thumb Code    42  nrf_log_backend_serial.o(.text)
    nrf_log_backend_serial_std_handler       0x00025b3f   Thumb Code   310  nrf_log_backend_serial.o(.text)
    byte2hex                                 0x00025c75   Thumb Code    42  nrf_log_backend_serial.o(.text)
    nrf_log_backend_serial_hexdump_handler   0x00025c9f   Thumb Code   286  nrf_log_backend_serial.o(.text)
    .text                                    0x00025de8   Section        0  nrf_log_frontend.o(.text)
    nrf_log_direct_feed                      0x0002605b   Thumb Code    22  nrf_log_frontend.o(.text)
    .text                                    0x00026074   Section        0  data_builder.o(.text)
    inv_db_load_func                         0x00026075   Thumb Code    48  data_builder.o(.text)
    inv_db_save_func                         0x000260a5   Thumb Code    14  data_builder.o(.text)
    inv_set_contiguous                       0x00026827   Thumb Code   164  data_builder.o(.text)
    .text                                    0x00026b24   Section        0  hal_outputs.o(.text)
    inv_get_rotation                         0x00026dc5   Thumb Code   176  hal_outputs.o(.text)
    google_orientation                       0x00026e75   Thumb Code   112  hal_outputs.o(.text)
    .text                                    0x00027104   Section        0  message_layer.o(.text)
    .text                                    0x00027128   Section        0  ml_math_func.o(.text)
    inv_row_2_scale                          0x00027ba1   Thumb Code    72  ml_math_func.o(.text)
    inv_q30_to_double                        0x00027e5f   Thumb Code    24  ml_math_func.o(.text)
    .text                                    0x00027e80   Section        0  mpl.o(.text)
    __print_result_location                  0x00027f0d   Thumb Code    22  mpl.o(.text)
    .text                                    0x00027f64   Section        0  results_holder.o(.text)
    inv_q30_to_float                         0x0002831f   Thumb Code    18  results_holder.o(.text)
    .text                                    0x00028340   Section        0  start_manager.o(.text)
    .text                                    0x000283d8   Section        0  storage_manager.o(.text)
    inv_find_entry                           0x0002845f   Thumb Code    40  storage_manager.o(.text)
    .text                                    0x00028598   Section        0  inv_mpu_dmp_motion_driver.o(.text)
    decode_gesture                           0x00028f93   Thumb Code    56  inv_mpu_dmp_motion_driver.o(.text)
    nrf_delay_us                             0x000291b1   Thumb Code   132  inv_mpu_dmp_motion_driver.o(.text)
    .text                                    0x00029288   Section        0  inv_mpu.o(.text)
    set_int_enable                           0x00029289   Thumb Code   112  inv_mpu.o(.text)
    setup_compass                            0x00029681   Thumb Code   484  inv_mpu.o(.text)
    compass_self_test                        0x0002a761   Thumb Code   274  inv_mpu.o(.text)
    get_st_biases                            0x0002a873   Thumb Code   984  inv_mpu.o(.text)
    accel_6500_self_test                     0x0002ac4b   Thumb Code   674  inv_mpu.o(.text)
    gyro_6500_self_test                      0x0002aeed   Thumb Code  1346  inv_mpu.o(.text)
    get_st_6500_biases                       0x0002b42f   Thumb Code  1422  inv_mpu.o(.text)
    nrf_delay_ms                             0x0002c29f   Thumb Code    10  inv_mpu.o(.text)
    nrf_delay_us                             0x0002c2a9   Thumb Code   132  inv_mpu.o(.text)
    .text                                    0x0002c354   Section        0  empl_outputs.o(.text)
    inv_generate_eMPL_outputs                0x0002c611   Thumb Code   166  empl_outputs.o(.text)
    inv_start_eMPL_outputs                   0x0002c6b7   Thumb Code    12  empl_outputs.o(.text)
    inv_stop_eMPL_outputs                    0x0002c6c3   Thumb Code     6  empl_outputs.o(.text)
    inv_init_eMPL_outputs                    0x0002c6c9   Thumb Code    14  empl_outputs.o(.text)
    .text                                    0x0002c72c   Section       36  arm_startup_nrf52840.o(.text)
    $v0                                      0x0002c72c   Number         0  arm_startup_nrf52840.o(.text)
    .text                                    0x0002c750   Section        0  system_nrf52840.o(.text)
    errata_120                               0x0002c759   Thumb Code    26  system_nrf52840.o(.text)
    errata_115                               0x0002c773   Thumb Code    26  system_nrf52840.o(.text)
    errata_103                               0x0002c78d   Thumb Code    26  system_nrf52840.o(.text)
    errata_98                                0x0002c7a7   Thumb Code    26  system_nrf52840.o(.text)
    errata_66                                0x0002c7c1   Thumb Code    26  system_nrf52840.o(.text)
    errata_36                                0x0002c7db   Thumb Code    26  system_nrf52840.o(.text)
    .text                                    0x0002c9ac   Section        0  compass_vec_cal.o(.text)
    inv_check_peaks                          0x0002c9b5   Thumb Code   486  compass_vec_cal.o(.text)
    inv_ignore_compass_data                  0x0002e1e3   Thumb Code   252  compass_vec_cal.o(.text)
    inv_bias_stability                       0x0002e2df   Thumb Code   368  compass_vec_cal.o(.text)
    inv_set_peaks                            0x0002eda7   Thumb Code    86  compass_vec_cal.o(.text)
    inv_init_sensitivity_const               0x0002edfd   Thumb Code    94  compass_vec_cal.o(.text)
    .text                                    0x0002ee9c   Section        0  fast_no_motion.o(.text)
    inv_reset_packet                         0x0002f885   Thumb Code    30  fast_no_motion.o(.text)
    .text                                    0x0002f8b4   Section        0  fusion_9axis.o(.text)
    inv_find_synchronized_compass_angle      0x0002f8b5   Thumb Code   172  fusion_9axis.o(.text)
    .text                                    0x0002ff64   Section        0  mag_disturb.o(.text)
    .text                                    0x00030524   Section        0  quaternion_supervisor.o(.text)
    accel_fusion                             0x00030525   Thumb Code   458  quaternion_supervisor.o(.text)
    inv_compute_quat_from_accel              0x000306ef   Thumb Code   300  quaternion_supervisor.o(.text)
    inv_normalize_quat                       0x0003081b   Thumb Code   194  quaternion_supervisor.o(.text)
    inv_process_dmp_quaternion               0x00030a39   Thumb Code   438  quaternion_supervisor.o(.text)
    inv_generate_quaternion                  0x00030de7   Thumb Code    68  quaternion_supervisor.o(.text)
    .text                                    0x00030eb8   Section        0  accel_auto_cal.o(.text)
    inv_check_push                           0x00030f5b   Thumb Code   352  accel_auto_cal.o(.text)
    inv_check_coverage_set_bias              0x000310bb   Thumb Code   318  accel_auto_cal.o(.text)
    inv_combine_data_calculate_bias          0x000311f9   Thumb Code   268  accel_auto_cal.o(.text)
    set_sample_rate                          0x0003168b   Thumb Code    82  accel_auto_cal.o(.text)
    .text                                    0x00031afc   Section        0  ldiv.o(.text)
    .text                                    0x00031b5e   Section        0  llshl.o(.text)
    .text                                    0x00031b7c   Section        0  llsshr.o(.text)
    .text                                    0x00031ba0   Section        0  ctype_o.o(.text)
    .text                                    0x00031ba8   Section        0  memmovea.o(.text)
    .text                                    0x00031be8   Section        0  memseta.o(.text)
    .text                                    0x00031c0c   Section        0  strlen.o(.text)
    .text                                    0x00031c1a   Section        0  memcmp.o(.text)
    .text                                    0x00031c34   Section        0  dadd.o(.text)
    .text                                    0x00031d82   Section        0  dmul.o(.text)
    .text                                    0x00031e66   Section        0  ddiv.o(.text)
    .text                                    0x00031f44   Section        0  ffltl.o(.text)
    .text                                    0x00031f70   Section        0  dflti.o(.text)
    .text                                    0x00031f92   Section        0  ffixl.o(.text)
    .text                                    0x00031fd4   Section        0  dfixi.o(.text)
    .text                                    0x00032012   Section        0  f2d.o(.text)
    .text                                    0x00032038   Section       48  cdcmple.o(.text)
    .text                                    0x00032068   Section       48  cdrcmple.o(.text)
    .text                                    0x00032098   Section        0  d2f.o(.text)
    .text                                    0x000320d0   Section        0  uidiv.o(.text)
    .text                                    0x000320fc   Section        0  uldiv.o(.text)
    .text                                    0x0003215e   Section        0  llushr.o(.text)
    .text                                    0x0003217e   Section        0  iusefp.o(.text)
    .text                                    0x0003217e   Section        0  fepilogue.o(.text)
    .text                                    0x000321ec   Section        0  depilogue.o(.text)
    .text                                    0x000322a6   Section        0  dsqrt.o(.text)
    .text                                    0x00032348   Section        0  dfixul.o(.text)
    .text                                    0x00032378   Section       36  init.o(.text)
    .text                                    0x0003239c   Section        0  dfltui.o(.text)
    i.__0printf                              0x000323b8   Section        0  printfa.o(i.__0printf)
    i.__0snprintf                            0x000323d8   Section        0  printfa.o(i.__0snprintf)
    i.__0vsprintf                            0x00032408   Section        0  printfa.o(i.__0vsprintf)
    i.__ARM_fpclassify                       0x0003242c   Section        0  fpclassify.o(i.__ARM_fpclassify)
    i.__ARM_fpclassifyf                      0x0003245c   Section        0  fpclassifyf.o(i.__ARM_fpclassifyf)
    i.__hardfp_acos                          0x00032488   Section        0  acos.o(i.__hardfp_acos)
    i.__hardfp_acosf                         0x000327e0   Section        0  acosf.o(i.__hardfp_acosf)
    i.__hardfp_asinf                         0x000328f8   Section        0  asinf.o(i.__hardfp_asinf)
    i.__hardfp_atan2f                        0x00032a24   Section        0  atan2f.o(i.__hardfp_atan2f)
    i.__hardfp_cos                           0x00032c78   Section        0  cos.o(i.__hardfp_cos)
    i.__hardfp_cosf                          0x00032d40   Section        0  cosf.o(i.__hardfp_cosf)
    i.__hardfp_fabs                          0x00032e90   Section        0  fabs.o(i.__hardfp_fabs)
    i.__hardfp_log                           0x00032ea8   Section        0  log.o(i.__hardfp_log)
    i.__hardfp_sinf                          0x0003326c   Section        0  sinf.o(i.__hardfp_sinf)
    i.__hardfp_sqrt                          0x000333fc   Section        0  sqrt.o(i.__hardfp_sqrt)
    i.__hardfp_sqrtf                         0x00033476   Section        0  sqrtf.o(i.__hardfp_sqrtf)
    i.__ieee754_rem_pio2                     0x000334b0   Section        0  rred.o(i.__ieee754_rem_pio2)
    i.__kernel_cos                           0x000338e8   Section        0  cos_i.o(i.__kernel_cos)
    i.__kernel_poly                          0x00033a58   Section        0  poly.o(i.__kernel_poly)
    i.__kernel_sin                           0x00033b50   Section        0  sin_i.o(i.__kernel_sin)
    i.__mathlib_dbl_divzero                  0x00033c80   Section        0  dunder.o(i.__mathlib_dbl_divzero)
    i.__mathlib_dbl_infnan                   0x00033cb0   Section        0  dunder.o(i.__mathlib_dbl_infnan)
    i.__mathlib_dbl_invalid                  0x00033cc8   Section        0  dunder.o(i.__mathlib_dbl_invalid)
    i.__mathlib_dbl_underflow                0x00033ce8   Section        0  dunder.o(i.__mathlib_dbl_underflow)
    i.__mathlib_flt_infnan                   0x00033d08   Section        0  funder.o(i.__mathlib_flt_infnan)
    i.__mathlib_flt_infnan2                  0x00033d0e   Section        0  funder.o(i.__mathlib_flt_infnan2)
    i.__mathlib_flt_invalid                  0x00033d14   Section        0  funder.o(i.__mathlib_flt_invalid)
    i.__mathlib_flt_underflow                0x00033d24   Section        0  funder.o(i.__mathlib_flt_underflow)
    i.__mathlib_rredf2                       0x00033d34   Section        0  rredf.o(i.__mathlib_rredf2)
    i.__scatterload_copy                     0x00033e88   Section       14  handlers.o(i.__scatterload_copy)
    i.__scatterload_null                     0x00033e96   Section        2  handlers.o(i.__scatterload_null)
    i.__scatterload_zeroinit                 0x00033e98   Section       14  handlers.o(i.__scatterload_zeroinit)
    i.__set_errno                            0x00033ea8   Section        0  errno.o(i.__set_errno)
    i._fp_digits                             0x00033eb4   Section        0  printfa.o(i._fp_digits)
    _fp_digits                               0x00033eb5   Thumb Code   366  printfa.o(i._fp_digits)
    i._printf_core                           0x00034038   Section        0  printfa.o(i._printf_core)
    _printf_core                             0x00034039   Thumb Code  1744  printfa.o(i._printf_core)
    i._printf_post_padding                   0x00034714   Section        0  printfa.o(i._printf_post_padding)
    _printf_post_padding                     0x00034715   Thumb Code    36  printfa.o(i._printf_post_padding)
    i._printf_pre_padding                    0x00034738   Section        0  printfa.o(i._printf_pre_padding)
    _printf_pre_padding                      0x00034739   Thumb Code    46  printfa.o(i._printf_pre_padding)
    i._snputc                                0x00034766   Section        0  printfa.o(i._snputc)
    _snputc                                  0x00034767   Thumb Code    22  printfa.o(i._snputc)
    i._sputc                                 0x0003477c   Section        0  printfa.o(i._sputc)
    _sputc                                   0x0003477d   Thumb Code    10  printfa.o(i._sputc)
    i.fabs                                   0x00034786   Section        0  fabs.o(i.fabs)
    i.free                                   0x000347a0   Section        0  malloc.o(i.free)
    i.malloc                                 0x000347f0   Section        0  malloc.o(i.malloc)
    i.sqrt                                   0x0003485c   Section        0  sqrt.o(i.sqrt)
    i.sqrtf                                  0x000348ca   Section        0  sqrtf.o(i.sqrtf)
    .constdata                               0x00034908   Section       32  main.o(.constdata)
    timer1                                   0x00034908   Data           4  main.o(.constdata)
    .constdata                               0x00034928   Section       12  nrf_drv_twi.o(.constdata)
    .constdata                               0x00034934   Section       24  nrf_drv_mpu_twi.o(.constdata)
    m_twi_instance                           0x00034934   Data           8  nrf_drv_mpu_twi.o(.constdata)
    .constdata                               0x0003494c   Section        8  boards.o(.constdata)
    m_board_led_list                         0x0003494c   Data           4  boards.o(.constdata)
    m_board_btn_list                         0x00034950   Data           4  boards.o(.constdata)
    .constdata                               0x00034954   Section       75  nrf_drv_gpiote.o(.constdata)
    __func__                                 0x0003495c   Data          20  nrf_drv_gpiote.o(.constdata)
    __func__                                 0x00034970   Data          24  nrf_drv_gpiote.o(.constdata)
    __func__                                 0x00034988   Data          23  nrf_drv_gpiote.o(.constdata)
    .constdata                               0x000349a0   Section       32  app_uart_fifo.o(.constdata)
    .constdata                               0x000349c0   Section      260  nrf_strerror.o(.constdata)
    m_unknown_str                            0x000349c0   Data          19  nrf_strerror.o(.constdata)
    nrf_strerror_array                       0x000349d4   Data         240  nrf_strerror.o(.constdata)
    .constdata                               0x00034ac4   Section       32  nrf_log_backend_serial.o(.constdata)
    .constdata                               0x00034ae4   Section     1024  ml_math_func.o(.constdata)
    .constdata                               0x00034ee4   Section       47  mpl.o(.constdata)
    __func__                                 0x00034ef8   Data          13  mpl.o(.constdata)
    __func__                                 0x00034f05   Data          14  mpl.o(.constdata)
    .constdata                               0x00034f13   Section     3062  inv_mpu_dmp_motion_driver.o(.constdata)
    dmp_memory                               0x00034f13   Data        3062  inv_mpu_dmp_motion_driver.o(.constdata)
    .constdata                               0x00035b09   Section       42  inv_mpu.o(.constdata)
    .constdata                               0x00035b34   Section       14  inv_mpu.o(.constdata)
    .constdata                               0x00035b44   Section       48  inv_mpu.o(.constdata)
    .constdata                               0x00035b74   Section      512  inv_mpu.o(.constdata)
    mpu_6500_st_tb                           0x00035b74   Data         512  inv_mpu.o(.constdata)
    .constdata                               0x00035d78   Section       80  acos.o(.constdata)
    pS                                       0x00035d78   Data          48  acos.o(.constdata)
    qS                                       0x00035da8   Data          32  acos.o(.constdata)
    .constdata                               0x00035dc8   Section       56  log.o(.constdata)
    Lg2                                      0x00035dc8   Data          24  log.o(.constdata)
    Lg                                       0x00035de0   Data          32  log.o(.constdata)
    .constdata                               0x00035e00   Section      129  ctype_o.o(.constdata)
    .constdata                               0x00035e84   Section        4  ctype_o.o(.constdata)
    table                                    0x00035e84   Data           4  ctype_o.o(.constdata)
    .constdata                               0x00035e88   Section       48  cos_i.o(.constdata)
    C                                        0x00035e88   Data          48  cos_i.o(.constdata)
    .constdata                               0x00035eb8   Section        8  qnan.o(.constdata)
    .constdata                               0x00035ec0   Section      200  rred.o(.constdata)
    pio2s                                    0x00035ec0   Data          48  rred.o(.constdata)
    twooverpi                                0x00035ef0   Data         152  rred.o(.constdata)
    .constdata                               0x00035f88   Section       32  rredf.o(.constdata)
    twooverpi                                0x00035f88   Data          32  rredf.o(.constdata)
    .constdata                               0x00035fa8   Section       40  sin_i.o(.constdata)
    S                                        0x00035fa8   Data          40  sin_i.o(.constdata)
    .conststring                             0x00035fd0   Section        9  main.o(.conststring)
    .conststring                             0x00035fdc   Section      775  nrf_strerror.o(.conststring)
    .conststring                             0x000362e4   Section       68  data_builder.o(.conststring)
    .data                                    0x20002198   Section        4  main.o(.data)
    .data                                    0x2000219c   Section       18  main.o(.data)
    gyro_pdata                               0x2000219c   Data           9  main.o(.data)
    compass_pdata                            0x200021a5   Data           9  main.o(.data)
    .data                                    0x200021ae   Section        2  nrf_drv_mpu_twi.o(.data)
    twi_tx_done                              0x200021ae   Data           1  nrf_drv_mpu_twi.o(.data)
    twi_rx_done                              0x200021af   Data           1  nrf_drv_mpu_twi.o(.data)
    .data                                    0x200021b0   Section       20  app_timer_1.o(.data)
    m_ticks_elapsed_q_read_ind               0x200021b0   Data           1  app_timer_1.o(.data)
    m_ticks_elapsed_q_write_ind              0x200021b1   Data           1  app_timer_1.o(.data)
    m_rtc1_running                           0x200021b2   Data           1  app_timer_1.o(.data)
    m_rtc1_reset                             0x200021b3   Data           1  app_timer_1.o(.data)
    mp_timer_id_head                         0x200021b4   Data           4  app_timer_1.o(.data)
    m_ticks_latest                           0x200021b8   Data           4  app_timer_1.o(.data)
    m_ticks_elapsed                          0x200021bc   Data           8  app_timer_1.o(.data)
    .data                                    0x200021c4   Section       16  app_uart_fifo.o(.data)
    tx_buffer                                0x200021c4   Data           1  app_uart_fifo.o(.data)
    rx_buffer                                0x200021c5   Data           1  app_uart_fifo.o(.data)
    m_rx_ovf                                 0x200021c6   Data           1  app_uart_fifo.o(.data)
    m_event_handler                          0x200021c8   Data           4  app_uart_fifo.o(.data)
    app_uart_inst                            0x200021cc   Data           8  app_uart_fifo.o(.data)
    .data                                    0x200021d4   Section        4  app_util_platform.o(.data)
    m_in_critical_region                     0x200021d4   Data           4  app_util_platform.o(.data)
    .data                                    0x200021d8   Section        4  retarget.o(.data)
    .data                                    0x200021dc   Section       12  nrf_log_backend_serial.o(.data)
    m_initialized                            0x200021dc   Data           1  nrf_log_backend_serial.o(.data)
    m_blocking_mode                          0x200021dd   Data           1  nrf_log_backend_serial.o(.data)
    m_rx_done                                0x200021de   Data           1  nrf_log_backend_serial.o(.data)
    m_uart                                   0x200021e0   Data           8  nrf_log_backend_serial.o(.data)
    .data                                    0x200021e8   Section       20  hal_outputs.o(.data)
    .data                                    0x200021fc   Section        4  message_layer.o(.data)
    mh                                       0x200021fc   Data           4  message_layer.o(.data)
    .data                                    0x20002200   Section       56  inv_mpu.o(.data)
    st                                       0x20002200   Data          56  inv_mpu.o(.data)
    .data                                    0x20002238   Section        4  system_nrf52840.o(.data)
    __tagsym$$used                           0x20002238   Number         0  system_nrf52840.o(.data)
    .data                                    0x2000223c   Section       16  compass_vec_cal.o(.data)
    r1                                       0x2000223c   Data           4  compass_vec_cal.o(.data)
    r2                                       0x20002240   Data           4  compass_vec_cal.o(.data)
    r3                                       0x20002244   Data           4  compass_vec_cal.o(.data)
    r4                                       0x20002248   Data           4  compass_vec_cal.o(.data)
    .data                                    0x2000224c   Section        4  mvars.o(.data)
    .data                                    0x20002250   Section        4  mvars.o(.data)
    .data                                    0x20002254   Section        4  errno.o(.data)
    _errno                                   0x20002254   Data           4  errno.o(.data)
    .bss                                     0x20002258   Section       32  main.o(.bss)
    timer1_data                              0x20002258   Data          32  main.o(.bss)
    .bss                                     0x20002278   Section     1316  main.o(.bss)
    hal                                      0x20002278   Data          36  main.o(.bss)
    rx_buf                                   0x2000229c   Data         256  main.o(.bss)
    tx_buf                                   0x2000239c   Data        1024  main.o(.bss)
    .bss                                     0x2000279c   Section       40  nrf_drv_twi.o(.bss)
    m_cb                                     0x2000279c   Data          40  nrf_drv_twi.o(.bss)
    .bss                                     0x200027c4   Section       16  nrf_drv_mpu_twi.o(.bss)
    .bss                                     0x200027d4   Section       20  nrf_drv_clock.o(.bss)
    m_clock_cb                               0x200027d4   Data          20  nrf_drv_clock.o(.bss)
    .bss                                     0x200027e8   Section       32  nrf_drv_uart.o(.bss)
    m_cb                                     0x200027e8   Data          32  nrf_drv_uart.o(.bss)
    .bss                                     0x20002808   Section       88  nrf_drv_gpiote.o(.bss)
    m_cb                                     0x20002808   Data          88  nrf_drv_gpiote.o(.bss)
    .bss                                     0x20002860   Section      268  app_timer_1.o(.bss)
    m_op_queue                               0x20002860   Data         268  app_timer_1.o(.bss)
    .bss                                     0x2000296c   Section       32  app_error.o(.bss)
    m_error_data                             0x2000296c   Data          32  app_error.o(.bss)
    .bss                                     0x2000298c   Section       32  app_uart_fifo.o(.bss)
    m_rx_fifo                                0x2000298c   Data          16  app_uart_fifo.o(.bss)
    m_tx_fifo                                0x2000299c   Data          16  app_uart_fifo.o(.bss)
    .bss                                     0x200029ac   Section      256  nrf_log_backend_serial.o(.bss)
    m_uart_buffer                            0x200029ac   Data         256  nrf_log_backend_serial.o(.bss)
    .bss                                     0x20002aac   Section       28  nrf_log_frontend.o(.bss)
    m_log_data                               0x20002aac   Data          28  nrf_log_frontend.o(.bss)
    .bss                                     0x20002ac8   Section      728  data_builder.o(.bss)
    inv_data_builder                         0x20002ac8   Data         320  data_builder.o(.bss)
    sensors                                  0x20002c08   Data         408  data_builder.o(.bss)
    .bss                                     0x20002da0   Section      196  hal_outputs.o(.bss)
    hal_out                                  0x20002da0   Data         196  hal_outputs.o(.bss)
    .bss                                     0x20002e64   Section      136  results_holder.o(.bss)
    rh                                       0x20002e64   Data         136  results_holder.o(.bss)
    .bss                                     0x20002eec   Section       84  start_manager.o(.bss)
    inv_start_cb                             0x20002eec   Data          84  start_manager.o(.bss)
    .bss                                     0x20002f40   Section      408  storage_manager.o(.bss)
    ds                                       0x20002f40   Data         408  storage_manager.o(.bss)
    .bss                                     0x200030d8   Section       16  inv_mpu_dmp_motion_driver.o(.bss)
    dmp                                      0x200030d8   Data          16  inv_mpu_dmp_motion_driver.o(.bss)
    .bss                                     0x200030e8   Section       40  empl_outputs.o(.bss)
    eMPL_out                                 0x200030e8   Data          40  empl_outputs.o(.bss)
    .bss                                     0x20003110   Section     1120  compass_vec_cal.o(.bss)
    .bss                                     0x20003570   Section      672  fast_no_motion.o(.bss)
    fnm_user                                 0x200037d0   Data          64  fast_no_motion.o(.bss)
    .bss                                     0x20003810   Section      312  fusion_9axis.o(.bss)
    .bss                                     0x20003948   Section      184  mag_disturb.o(.bss)
    .bss                                     0x20003a00   Section      108  quaternion_supervisor.o(.bss)
    inv_quat_data                            0x20003a00   Data         108  quaternion_supervisor.o(.bss)
    .bss                                     0x20003a70   Section     1208  accel_auto_cal.o(.bss)
    auto_cal                                 0x20003a70   Data        1208  accel_auto_cal.o(.bss)
    HEAP                                     0x20003f28   Section     8192  arm_startup_nrf52840.o(HEAP)
    STACK                                    0x20005f28   Section     8192  arm_startup_nrf52840.o(STACK)

    Global Symbols

    Symbol Name                              Value     Ov Type        Size  Object(Section)

    BuildAttributes$$THM_ISAv4$E$P$D$K$B$S$7EM$VFPi3$EXTD16$VFPS$VFMA$PE$A:L22UL41UL21$X:L11$S22US41US21$IEEE1$IW$USESV6$~STKCKD$USESV7$~SHL$OTIME$ROPI$IEEEX$EBA8$MICROLIB$REQ8$PRES8$EABIv2 0x00000000   Number         0  anon$$obj.o ABSOLUTE
    __ARM_use_no_argv                        0x00000000   Number         0  main.o ABSOLUTE
    _printf_a                                0x00000000   Number         0  stubs.o ABSOLUTE
    _printf_c                                0x00000000   Number         0  stubs.o ABSOLUTE
    _printf_charcount                        0x00000000   Number         0  stubs.o ABSOLUTE
    _printf_d                                0x00000000   Number         0  stubs.o ABSOLUTE
    _printf_e                                0x00000000   Number         0  stubs.o ABSOLUTE
    _printf_f                                0x00000000   Number         0  stubs.o ABSOLUTE
    _printf_flags                            0x00000000   Number         0  stubs.o ABSOLUTE
    _printf_fp_dec                           0x00000000   Number         0  stubs.o ABSOLUTE
    _printf_fp_hex                           0x00000000   Number         0  stubs.o ABSOLUTE
    _printf_g                                0x00000000   Number         0  stubs.o ABSOLUTE
    _printf_i                                0x00000000   Number         0  stubs.o ABSOLUTE
    _printf_int_dec                          0x00000000   Number         0  stubs.o ABSOLUTE
    _printf_l                                0x00000000   Number         0  stubs.o ABSOLUTE
    _printf_lc                               0x00000000   Number         0  stubs.o ABSOLUTE
    _printf_ll                               0x00000000   Number         0  stubs.o ABSOLUTE
    _printf_lld                              0x00000000   Number         0  stubs.o ABSOLUTE
    _printf_lli                              0x00000000   Number         0  stubs.o ABSOLUTE
    _printf_llo                              0x00000000   Number         0  stubs.o ABSOLUTE
    _printf_llu                              0x00000000   Number         0  stubs.o ABSOLUTE
    _printf_llx                              0x00000000   Number         0  stubs.o ABSOLUTE
    _printf_longlong_dec                     0x00000000   Number         0  stubs.o ABSOLUTE
    _printf_longlong_hex                     0x00000000   Number         0  stubs.o ABSOLUTE
    _printf_longlong_oct                     0x00000000   Number         0  stubs.o ABSOLUTE
    _printf_ls                               0x00000000   Number         0  stubs.o ABSOLUTE
    _printf_mbtowc                           0x00000000   Number         0  stubs.o ABSOLUTE
    _printf_n                                0x00000000   Number         0  stubs.o ABSOLUTE
    _printf_o                                0x00000000   Number         0  stubs.o ABSOLUTE
    _printf_p                                0x00000000   Number         0  stubs.o ABSOLUTE
    _printf_percent                          0x00000000   Number         0  stubs.o ABSOLUTE
    _printf_pre_padding                      0x00000000   Number         0  stubs.o ABSOLUTE
    _printf_return_value                     0x00000000   Number         0  stubs.o ABSOLUTE
    _printf_s                                0x00000000   Number         0  stubs.o ABSOLUTE
    _printf_sizespec                         0x00000000   Number         0  stubs.o ABSOLUTE
    _printf_str                              0x00000000   Number         0  stubs.o ABSOLUTE
    _printf_truncate_signed                  0x00000000   Number         0  stubs.o ABSOLUTE
    _printf_truncate_unsigned                0x00000000   Number         0  stubs.o ABSOLUTE
    _printf_u                                0x00000000   Number         0  stubs.o ABSOLUTE
    _printf_wc                               0x00000000   Number         0  stubs.o ABSOLUTE
    _printf_wctomb                           0x00000000   Number         0  stubs.o ABSOLUTE
    _printf_widthprec                        0x00000000   Number         0  stubs.o ABSOLUTE
    _printf_x                                0x00000000   Number         0  stubs.o ABSOLUTE
    __cpp_initialize__aeabi_                  - Undefined Weak Reference
    __cxa_finalize                            - Undefined Weak Reference
    __decompress                              - Undefined Weak Reference
    _clock_init                               - Undefined Weak Reference
    _microlib_exit                            - Undefined Weak Reference
    __Vectors_Size                           0x00000200   Number         0  arm_startup_nrf52840.o ABSOLUTE
    __Vectors                                0x00022000   Data           4  arm_startup_nrf52840.o(RESET)
    __Vectors_End                            0x00022200   Data           0  arm_startup_nrf52840.o(RESET)
    __main                                   0x00022201   Thumb Code     0  entry.o(.ARM.Collect$$$$00000000)
    _main_stk                                0x00022201   Thumb Code     0  entry2.o(.ARM.Collect$$$$00000001)
    _main_scatterload                        0x00022205   Thumb Code     0  entry5.o(.ARM.Collect$$$$00000004)
    __main_after_scatterload                 0x00022209   Thumb Code     0  entry5.o(.ARM.Collect$$$$00000004)
    _main_clock                              0x00022209   Thumb Code     0  entry7b.o(.ARM.Collect$$$$00000008)
    _main_cpp_init                           0x00022209   Thumb Code     0  entry8b.o(.ARM.Collect$$$$0000000A)
    _main_init                               0x00022209   Thumb Code     0  entry9a.o(.ARM.Collect$$$$0000000B)
    __rt_final_cpp                           0x00022211   Thumb Code     0  entry10a.o(.ARM.Collect$$$$0000000D)
    __rt_final_exit                          0x00022211   Thumb Code     0  entry11a.o(.ARM.Collect$$$$0000000F)
    uart_error_handle                        0x00022215   Thumb Code    24  main.o(.text)
    uart_config                              0x0002222d   Thumb Code    64  main.o(.text)
    mpu_twi_setup                            0x0002226d   Thumb Code    24  main.o(.text)
    main                                     0x000223d3   Thumb Code  1048  main.o(.text)
    nrf_drv_twi_init                         0x00022abf   Thumb Code   134  nrf_drv_twi.o(.text)
    nrf_drv_twi_disable                      0x00022b45   Thumb Code    44  nrf_drv_twi.o(.text)
    nrf_drv_twi_uninit                       0x00022b71   Thumb Code   104  nrf_drv_twi.o(.text)
    nrf_drv_twi_enable                       0x00022bd9   Thumb Code    28  nrf_drv_twi.o(.text)
    nrf_drv_twi_is_busy                      0x00022bf5   Thumb Code    18  nrf_drv_twi.o(.text)
    nrf_drv_twi_xfer                         0x00022e49   Thumb Code    28  nrf_drv_twi.o(.text)
    nrf_drv_twi_tx                           0x00022e65   Thumb Code    38  nrf_drv_twi.o(.text)
    nrf_drv_twi_rx                           0x00022e8b   Thumb Code    32  nrf_drv_twi.o(.text)
    nrf_drv_twi_data_count_get               0x00022eab   Thumb Code     4  nrf_drv_twi.o(.text)
    nrf_drv_twi_start_task_get               0x00022eaf   Thumb Code    16  nrf_drv_twi.o(.text)
    nrf_drv_twi_stopped_event_get            0x00022ebf   Thumb Code     8  nrf_drv_twi.o(.text)
    SPIM0_SPIS0_TWIM0_TWIS0_SPI0_TWI0_IRQHandler 0x00023019   Thumb Code     6  nrf_drv_twi.o(.text)
    nrf_drv_mpu_init                         0x000230c3   Thumb Code    46  nrf_drv_mpu_twi.o(.text)
    nrf_drv_mpu_write_registers              0x00023103   Thumb Code    70  nrf_drv_mpu_twi.o(.text)
    nrf_drv_mpu_write_single_register        0x00023149   Thumb Code    52  nrf_drv_mpu_twi.o(.text)
    nrf_drv_mpu_read_registers               0x0002317d   Thumb Code    94  nrf_drv_mpu_twi.o(.text)
    nrf_drv_mpu_read_magnetometer_registers  0x000231db   Thumb Code    90  nrf_drv_mpu_twi.o(.text)
    nrf_drv_mpu_write_magnetometer_register  0x00023235   Thumb Code    52  nrf_drv_mpu_twi.o(.text)
    mpu_twi_read_test                        0x00023269   Thumb Code   122  nrf_drv_mpu_twi.o(.text)
    mpu_twi_write_single_test                0x000232e3   Thumb Code    54  nrf_drv_mpu_twi.o(.text)
    i2c_read_porting                         0x00023319   Thumb Code     2  nrf_drv_mpu_twi.o(.text)
    i2c_write_porting                        0x0002331b   Thumb Code   108  nrf_drv_mpu_twi.o(.text)
    mpu_twi_write_test                       0x00023387   Thumb Code    86  nrf_drv_mpu_twi.o(.text)
    mpu_config                               0x00023439   Thumb Code    10  app_mpu.o(.text)
    mpu_int_cfg_pin                          0x00023443   Thumb Code     8  app_mpu.o(.text)
    mpu_int_enable                           0x0002344b   Thumb Code     8  app_mpu.o(.text)
    mpu_init                                 0x00023453   Thumb Code    12  app_mpu.o(.text)
    mpu_read_accel                           0x0002345f   Thumb Code    44  app_mpu.o(.text)
    mpu_read_gyro                            0x0002348b   Thumb Code    44  app_mpu.o(.text)
    mpu_read_temp                            0x000234b7   Thumb Code    38  app_mpu.o(.text)
    mpu_read_int_source                      0x000234dd   Thumb Code    10  app_mpu.o(.text)
    mpu_magnetometer_init                    0x000234e7   Thumb Code    44  app_mpu.o(.text)
    mpu_read_magnetometer                    0x00023513   Thumb Code    46  app_mpu.o(.text)
    mpu_read_magnetometer_test               0x00023541   Thumb Code     4  app_mpu.o(.text)
    millis                                   0x00023545   Thumb Code    30  nrf_drv_inv_dmp.o(.text)
    _MLPrintLog                              0x00023563   Thumb Code   156  nrf_drv_inv_dmp.o(.text)
    bsp_board_led_state_get                  0x00023639   Thumb Code    36  boards.o(.text)
    bsp_board_led_on                         0x0002365d   Thumb Code     8  boards.o(.text)
    bsp_board_led_off                        0x00023665   Thumb Code     8  boards.o(.text)
    bsp_board_leds_off                       0x0002366d   Thumb Code    18  boards.o(.text)
    bsp_board_leds_on                        0x0002367f   Thumb Code    18  boards.o(.text)
    bsp_board_led_invert                     0x00023691   Thumb Code    38  boards.o(.text)
    bsp_board_leds_init                      0x000236b7   Thumb Code    36  boards.o(.text)
    bsp_board_led_idx_to_pin                 0x000236db   Thumb Code     6  boards.o(.text)
    bsp_board_pin_to_led_idx                 0x000236e1   Thumb Code    32  boards.o(.text)
    bsp_board_button_state_get               0x00023701   Thumb Code    38  boards.o(.text)
    bsp_board_buttons_init                   0x00023727   Thumb Code    34  boards.o(.text)
    bsp_board_pin_to_button_idx              0x00023749   Thumb Code    34  boards.o(.text)
    bsp_board_button_idx_to_pin              0x0002376b   Thumb Code     8  boards.o(.text)
    nrf_drv_clock_init_check                 0x00023829   Thumb Code     6  nrf_drv_clock.o(.text)
    nrf_drv_clock_init                       0x0002382f   Thumb Code    64  nrf_drv_clock.o(.text)
    nrf_drv_clock_uninit                     0x0002386f   Thumb Code    32  nrf_drv_clock.o(.text)
    nrf_drv_clock_lfclk_request              0x000238b7   Thumb Code    84  nrf_drv_clock.o(.text)
    nrf_drv_clock_lfclk_release              0x0002390b   Thumb Code    34  nrf_drv_clock.o(.text)
    nrf_drv_clock_lfclk_is_running           0x0002392d   Thumb Code    10  nrf_drv_clock.o(.text)
    nrf_drv_clock_hfclk_request              0x00023937   Thumb Code    84  nrf_drv_clock.o(.text)
    nrf_drv_clock_hfclk_release              0x0002398b   Thumb Code    34  nrf_drv_clock.o(.text)
    nrf_drv_clock_hfclk_is_running           0x000239ad   Thumb Code     6  nrf_drv_clock.o(.text)
    nrf_drv_clock_calibration_start          0x000239b3   Thumb Code     4  nrf_drv_clock.o(.text)
    nrf_drv_clock_calibration_abort          0x000239b7   Thumb Code     4  nrf_drv_clock.o(.text)
    nrf_drv_clock_is_calibrating             0x000239bb   Thumb Code     4  nrf_drv_clock.o(.text)
    POWER_CLOCK_IRQHandler                   0x000239bf   Thumb Code    84  nrf_drv_clock.o(.text)
    nrf_drv_common_clock_irq_disable         0x00023a89   Thumb Code     8  nrf_drv_common.o(.text)
    nrf_drv_common_irq_enable                0x00023a91   Thumb Code    56  nrf_drv_common.o(.text)
    nrf_drv_uart_init                        0x00023acd   Thumb Code   104  nrf_drv_uart.o(.text)
    nrf_drv_uart_uninit                      0x00023b35   Thumb Code    98  nrf_drv_uart.o(.text)
    nrf_drv_uart_tx_in_progress              0x00023b97   Thumb Code    18  nrf_drv_uart.o(.text)
    nrf_drv_uart_tx                          0x00023ba9   Thumb Code   168  nrf_drv_uart.o(.text)
    nrf_drv_uart_rx                          0x00023c85   Thumb Code   176  nrf_drv_uart.o(.text)
    nrf_drv_uart_rx_ready                    0x00023d35   Thumb Code    32  nrf_drv_uart.o(.text)
    nrf_drv_uart_rx_enable                   0x00023d55   Thumb Code    42  nrf_drv_uart.o(.text)
    nrf_drv_uart_rx_disable                  0x00023d7f   Thumb Code    32  nrf_drv_uart.o(.text)
    nrf_drv_uart_errorsrc_get                0x00023d9f   Thumb Code    56  nrf_drv_uart.o(.text)
    nrf_drv_uart_tx_abort                    0x00023dd7   Thumb Code    86  nrf_drv_uart.o(.text)
    nrf_drv_uart_rx_abort                    0x00023e2d   Thumb Code    36  nrf_drv_uart.o(.text)
    UARTE0_UART0_IRQHandler                  0x00023f81   Thumb Code    20  nrf_drv_uart.o(.text)
    nrf_drv_gpiote_init                      0x00024611   Thumb Code   124  nrf_drv_gpiote.o(.text)
    nrf_drv_gpiote_is_init                   0x0002468d   Thumb Code    14  nrf_drv_gpiote.o(.text)
    nrf_drv_gpiote_in_event_disable          0x0002469b   Thumb Code    68  nrf_drv_gpiote.o(.text)
    nrf_drv_gpiote_in_uninit                 0x000246df   Thumb Code    66  nrf_drv_gpiote.o(.text)
    nrf_drv_gpiote_out_uninit                0x00024721   Thumb Code    62  nrf_drv_gpiote.o(.text)
    nrf_drv_gpiote_uninit                    0x0002475f   Thumb Code    68  nrf_drv_gpiote.o(.text)
    nrf_drv_gpiote_out_init                  0x000247a3   Thumb Code   182  nrf_drv_gpiote.o(.text)
    nrf_drv_gpiote_out_set                   0x00024859   Thumb Code     4  nrf_drv_gpiote.o(.text)
    nrf_drv_gpiote_out_clear                 0x0002485d   Thumb Code     4  nrf_drv_gpiote.o(.text)
    nrf_drv_gpiote_out_toggle                0x00024861   Thumb Code    34  nrf_drv_gpiote.o(.text)
    nrf_drv_gpiote_out_task_enable           0x00024883   Thumb Code    28  nrf_drv_gpiote.o(.text)
    nrf_drv_gpiote_out_task_disable          0x0002489f   Thumb Code    28  nrf_drv_gpiote.o(.text)
    nrf_drv_gpiote_out_task_addr_get         0x000248bb   Thumb Code    16  nrf_drv_gpiote.o(.text)
    nrf_drv_gpiote_set_task_addr_get         0x000248cb   Thumb Code    20  nrf_drv_gpiote.o(.text)
    nrf_drv_gpiote_clr_task_addr_get         0x000248df   Thumb Code    20  nrf_drv_gpiote.o(.text)
    nrf_drv_gpiote_out_task_force            0x000248f3   Thumb Code    38  nrf_drv_gpiote.o(.text)
    nrf_drv_gpiote_out_task_trigger          0x00024919   Thumb Code    18  nrf_drv_gpiote.o(.text)
    nrf_drv_gpiote_set_task_trigger          0x0002492b   Thumb Code    22  nrf_drv_gpiote.o(.text)
    nrf_drv_gpiote_clr_task_trigger          0x00024941   Thumb Code    22  nrf_drv_gpiote.o(.text)
    nrf_drv_gpiote_in_init                   0x00024957   Thumb Code   342  nrf_drv_gpiote.o(.text)
    nrf_drv_gpiote_in_event_enable           0x00024aad   Thumb Code   158  nrf_drv_gpiote.o(.text)
    nrf_drv_gpiote_in_is_set                 0x00024b4b   Thumb Code    14  nrf_drv_gpiote.o(.text)
    nrf_drv_gpiote_in_event_addr_get         0x00024b59   Thumb Code    38  nrf_drv_gpiote.o(.text)
    GPIOTE_IRQHandler                        0x00024b7f   Thumb Code   444  nrf_drv_gpiote.o(.text)
    RTC1_IRQHandler                          0x000253a3   Thumb Code    18  app_timer_1.o(.text)
    SWI0_EGU0_IRQHandler                     0x000253b5   Thumb Code     2  app_timer_1.o(.text)
    app_timer_init                           0x000253b7   Thumb Code    62  app_timer_1.o(.text)
    app_timer_create                         0x000253f5   Thumb Code    42  app_timer_1.o(.text)
    app_timer_start                          0x0002541f   Thumb Code    52  app_timer_1.o(.text)
    app_timer_stop                           0x00025453   Thumb Code    32  app_timer_1.o(.text)
    app_timer_stop_all                       0x00025473   Thumb Code    18  app_timer_1.o(.text)
    app_timer_cnt_get                        0x00025485   Thumb Code     6  app_timer_1.o(.text)
    app_timer_cnt_diff_compute               0x0002548b   Thumb Code     8  app_timer_1.o(.text)
    app_timer_pause                          0x00025493   Thumb Code     8  app_timer_1.o(.text)
    app_timer_resume                         0x0002549b   Thumb Code     8  app_timer_1.o(.text)
    app_error_handler                        0x00025519   Thumb Code    24  app_error.o(.text)
    app_error_handler_bare                   0x00025531   Thumb Code    22  app_error.o(.text)
    app_error_save_and_stop                  0x00025547   Thumb Code    96  app_error.o(.text)
    app_error_fault_handler                  0x000255ad   Thumb Code    42  app_error_weak.o(.text)
    app_fifo_init                            0x0002560d   Thumb Code    34  app_fifo.o(.text)
    app_fifo_put                             0x0002562f   Thumb Code    26  app_fifo.o(.text)
    app_fifo_get                             0x00025649   Thumb Code    24  app_fifo.o(.text)
    app_fifo_peek                            0x00025661   Thumb Code    34  app_fifo.o(.text)
    app_fifo_flush                           0x00025683   Thumb Code     8  app_fifo.o(.text)
    app_fifo_read                            0x0002568b   Thumb Code    86  app_fifo.o(.text)
    app_fifo_write                           0x000256e1   Thumb Code    90  app_fifo.o(.text)
    app_uart_init                            0x00025805   Thumb Code   176  app_uart_fifo.o(.text)
    app_uart_flush                           0x000258b5   Thumb Code    26  app_uart_fifo.o(.text)
    app_uart_get                             0x000258cf   Thumb Code    42  app_uart_fifo.o(.text)
    app_uart_put                             0x000258f9   Thumb Code    56  app_uart_fifo.o(.text)
    app_uart_close                           0x00025931   Thumb Code    14  app_uart_fifo.o(.text)
    app_util_disable_irq                     0x00025951   Thumb Code    12  app_util_platform.o(.text)
    app_util_enable_irq                      0x0002595d   Thumb Code    16  app_util_platform.o(.text)
    app_util_critical_region_enter           0x0002596d   Thumb Code     2  app_util_platform.o(.text)
    app_util_critical_region_exit            0x0002596f   Thumb Code     2  app_util_platform.o(.text)
    privilege_level_get                      0x00025971   Thumb Code    28  app_util_platform.o(.text)
    current_int_priority_get                 0x0002598d   Thumb Code    54  app_util_platform.o(.text)
    nrf_strerror_find                        0x000259c9   Thumb Code    52  nrf_strerror.o(.text)
    nrf_strerror_get                         0x000259fd   Thumb Code    16  nrf_strerror.o(.text)
    fgetc                                    0x00025a11   Thumb Code    18  retarget.o(.text)
    fputc                                    0x00025a23   Thumb Code    14  retarget.o(.text)
    nrf_log_backend_init                     0x00025a3d   Thumb Code   104  nrf_log_backend_serial.o(.text)
    nrf_log_backend_std_handler_get          0x00025dbd   Thumb Code     4  nrf_log_backend_serial.o(.text)
    nrf_log_backend_hexdump_handler_get      0x00025dc1   Thumb Code     4  nrf_log_backend_serial.o(.text)
    nrf_log_backend_getchar                  0x00025dc5   Thumb Code     2  nrf_log_backend_serial.o(.text)
    nrf_log_handlers_set                     0x00025de9   Thumb Code     8  nrf_log_frontend.o(.text)
    nrf_log_frontend_init                    0x00025df1   Thumb Code     2  nrf_log_frontend.o(.text)
    nrf_log_init                             0x00025df3   Thumb Code    36  nrf_log_frontend.o(.text)
    nrf_log_blocking_backend_set             0x00025e17   Thumb Code     6  nrf_log_frontend.o(.text)
    nrf_log_push                             0x00025e1d   Thumb Code     2  nrf_log_frontend.o(.text)
    nrf_log_frontend_std_0                   0x00025e1f   Thumb Code     8  nrf_log_frontend.o(.text)
    nrf_log_frontend_std_1                   0x00025e27   Thumb Code    14  nrf_log_frontend.o(.text)
    nrf_log_frontend_std_2                   0x00025e35   Thumb Code    16  nrf_log_frontend.o(.text)
    nrf_log_frontend_std_3                   0x00025e45   Thumb Code    20  nrf_log_frontend.o(.text)
    nrf_log_frontend_std_4                   0x00025e59   Thumb Code    24  nrf_log_frontend.o(.text)
    nrf_log_frontend_std_5                   0x00025e71   Thumb Code    30  nrf_log_frontend.o(.text)
    nrf_log_frontend_std_6                   0x00025e8f   Thumb Code    36  nrf_log_frontend.o(.text)
    nrf_log_frontend_hexdump                 0x00025eb3   Thumb Code    50  nrf_log_frontend.o(.text)
    buffer_is_empty                          0x00025ee5   Thumb Code    16  nrf_log_frontend.o(.text)
    nrf_log_frontend_dequeue                 0x00025ef5   Thumb Code   354  nrf_log_frontend.o(.text)
    nrf_log_getchar                          0x00026057   Thumb Code     4  nrf_log_frontend.o(.text)
    inv_disable_compass_soft_iron_matrix     0x000260b3   Thumb Code    12  data_builder.o(.text)
    inv_reset_compass_soft_iron_matrix       0x000260bf   Thumb Code    68  data_builder.o(.text)
    inv_init_data_builder                    0x00026103   Thumb Code    48  data_builder.o(.text)
    inv_get_gyro_sensitivity                 0x00026133   Thumb Code     8  data_builder.o(.text)
    inv_get_accel_sensitivity                0x0002613b   Thumb Code     8  data_builder.o(.text)
    inv_get_compass_sensitivity              0x00026143   Thumb Code    10  data_builder.o(.text)
    set_sensor_orientation_and_scale         0x0002614d   Thumb Code     6  data_builder.o(.text)
    inv_set_gyro_orientation_and_scale       0x00026153   Thumb Code    10  data_builder.o(.text)
    inv_set_gyro_sample_rate                 0x0002615d   Thumb Code    32  data_builder.o(.text)
    inv_set_accel_sample_rate                0x0002617d   Thumb Code    36  data_builder.o(.text)
    inv_set_compass_sample_rate              0x000261a1   Thumb Code    36  data_builder.o(.text)
    inv_get_gyro_sample_rate_ms              0x000261c5   Thumb Code    10  data_builder.o(.text)
    inv_get_accel_sample_rate_ms             0x000261cf   Thumb Code    10  data_builder.o(.text)
    inv_get_compass_sample_rate_ms           0x000261d9   Thumb Code    12  data_builder.o(.text)
    inv_set_quat_sample_rate                 0x000261e5   Thumb Code    22  data_builder.o(.text)
    inv_set_gyro_bandwidth                   0x000261fb   Thumb Code     8  data_builder.o(.text)
    inv_set_accel_bandwidth                  0x00026203   Thumb Code    10  data_builder.o(.text)
    inv_set_compass_bandwidth                0x0002620d   Thumb Code    10  data_builder.o(.text)
    inv_get_compass_on                       0x00026217   Thumb Code    14  data_builder.o(.text)
    inv_get_gyro_on                          0x00026225   Thumb Code    12  data_builder.o(.text)
    inv_get_accel_on                         0x00026231   Thumb Code    14  data_builder.o(.text)
    inv_get_last_timestamp                   0x0002623f   Thumb Code    68  data_builder.o(.text)
    inv_set_accel_orientation_and_scale      0x00026283   Thumb Code    10  data_builder.o(.text)
    inv_set_compass_orientation_and_scale    0x0002628d   Thumb Code    10  data_builder.o(.text)
    inv_matrix_vector_mult                   0x00026297   Thumb Code   110  data_builder.o(.text)
    inv_apply_calibration                    0x00026305   Thumb Code   106  data_builder.o(.text)
    inv_get_compass_bias                     0x0002636f   Thumb Code    22  data_builder.o(.text)
    inv_set_compass_bias                     0x00026385   Thumb Code    68  data_builder.o(.text)
    inv_set_compass_disturbance              0x000263c9   Thumb Code    10  data_builder.o(.text)
    inv_get_compass_disturbance              0x000263d3   Thumb Code    10  data_builder.o(.text)
    inv_set_accel_bias                       0x000263dd   Thumb Code    72  data_builder.o(.text)
    inv_set_accel_accuracy                   0x00026425   Thumb Code    24  data_builder.o(.text)
    inv_set_accel_bias_mask                  0x0002643d   Thumb Code   102  data_builder.o(.text)
    inv_set_gyro_bias                        0x000264a3   Thumb Code    92  data_builder.o(.text)
    inv_get_gyro_bias_tc_set                 0x000264ff   Thumb Code    24  data_builder.o(.text)
    inv_get_gyro_bias                        0x00026517   Thumb Code    36  data_builder.o(.text)
    inv_get_accel_bias                       0x0002653b   Thumb Code    36  data_builder.o(.text)
    inv_build_accel                          0x0002655f   Thumb Code    96  data_builder.o(.text)
    inv_build_gyro                           0x000265bf   Thumb Code    44  data_builder.o(.text)
    inv_get_compass_soft_iron_output_data    0x000265eb   Thumb Code    24  data_builder.o(.text)
    inv_set_compass_soft_iron_input_data     0x00026603   Thumb Code    70  data_builder.o(.text)
    inv_build_compass                        0x00026649   Thumb Code   114  data_builder.o(.text)
    inv_build_temp                           0x000266bb   Thumb Code    24  data_builder.o(.text)
    inv_build_quat                           0x000266d3   Thumb Code    44  data_builder.o(.text)
    inv_accel_was_turned_off                 0x000266ff   Thumb Code     8  data_builder.o(.text)
    inv_compass_was_turned_off               0x00026707   Thumb Code    10  data_builder.o(.text)
    inv_quaternion_sensor_was_turned_off     0x00026711   Thumb Code    10  data_builder.o(.text)
    inv_gyro_was_turned_off                  0x0002671b   Thumb Code     8  data_builder.o(.text)
    inv_temperature_was_turned_off           0x00026723   Thumb Code    10  data_builder.o(.text)
    inv_register_data_cb                     0x0002672d   Thumb Code   164  data_builder.o(.text)
    inv_unregister_data_cb                   0x000267d1   Thumb Code    86  data_builder.o(.text)
    inv_execute_on_data                      0x000268cb   Thumb Code   116  data_builder.o(.text)
    inv_get_accel_set                        0x0002693f   Thumb Code    42  data_builder.o(.text)
    inv_get_gyro_set                         0x00026969   Thumb Code    40  data_builder.o(.text)
    inv_get_gyro_set_raw                     0x00026991   Thumb Code    40  data_builder.o(.text)
    inv_get_gyro                             0x000269b9   Thumb Code    18  data_builder.o(.text)
    inv_get_compass_set                      0x000269cb   Thumb Code    56  data_builder.o(.text)
    inv_get_temp_set                         0x00026a03   Thumb Code    32  data_builder.o(.text)
    inv_get_gyro_accuracy                    0x00026a23   Thumb Code     6  data_builder.o(.text)
    inv_get_mag_accuracy                     0x00026a29   Thumb Code    22  data_builder.o(.text)
    inv_get_accel_accuracy                   0x00026a3f   Thumb Code     6  data_builder.o(.text)
    inv_get_gyro_orient                      0x00026a45   Thumb Code    10  data_builder.o(.text)
    inv_get_accel_orient                     0x00026a4f   Thumb Code    10  data_builder.o(.text)
    inv_get_compass_soft_iron_matrix_d       0x00026a59   Thumb Code    24  data_builder.o(.text)
    inv_set_compass_soft_iron_matrix_d       0x00026a71   Thumb Code    50  data_builder.o(.text)
    inv_get_compass_soft_iron_matrix_f       0x00026aa3   Thumb Code    28  data_builder.o(.text)
    inv_set_compass_soft_iron_matrix_f       0x00026abf   Thumb Code    50  data_builder.o(.text)
    inv_get_compass_soft_iron_input_data     0x00026af1   Thumb Code    24  data_builder.o(.text)
    inv_enable_compass_soft_iron_matrix      0x00026b09   Thumb Code    10  data_builder.o(.text)
    inv_get_sensor_type_accelerometer        0x00026b25   Thumb Code    80  hal_outputs.o(.text)
    inv_get_sensor_type_linear_acceleration  0x00026b75   Thumb Code   106  hal_outputs.o(.text)
    inv_get_sensor_type_gravity              0x00026bdf   Thumb Code    88  hal_outputs.o(.text)
    inv_get_sensor_type_gyroscope            0x00026c37   Thumb Code    80  hal_outputs.o(.text)
    inv_get_sensor_type_gyroscope_raw        0x00026c87   Thumb Code    80  hal_outputs.o(.text)
    inv_get_sensor_type_rotation_vector      0x00026cd7   Thumb Code   182  hal_outputs.o(.text)
    inv_get_sensor_type_magnetic_field       0x00026d8d   Thumb Code    56  hal_outputs.o(.text)
    inv_get_sensor_type_orientation          0x00026ee5   Thumb Code    20  hal_outputs.o(.text)
    inv_generate_hal_outputs                 0x00026ef9   Thumb Code   406  hal_outputs.o(.text)
    inv_stop_hal_outputs                     0x0002708f   Thumb Code     8  hal_outputs.o(.text)
    inv_start_hal_outputs                    0x00027097   Thumb Code    14  hal_outputs.o(.text)
    inv_init_hal_outputs                     0x000270a5   Thumb Code    48  hal_outputs.o(.text)
    inv_enable_hal_outputs                   0x000270d5   Thumb Code    18  hal_outputs.o(.text)
    inv_disable_hal_outputs                  0x000270e7   Thumb Code    18  hal_outputs.o(.text)
    inv_set_message                          0x00027105   Thumb Code    16  message_layer.o(.text)
    inv_get_message_level_0                  0x00027115   Thumb Code    16  message_layer.o(.text)
    inv_sinf                                 0x00027129   Thumb Code    38  ml_math_func.o(.text)
    inv_cosf                                 0x0002714f   Thumb Code    40  ml_math_func.o(.text)
    inv_q30_mult                             0x00027177   Thumb Code    12  ml_math_func.o(.text)
    inv_q_mult                               0x00027183   Thumb Code   176  ml_math_func.o(.text)
    inv_q_invert                             0x00027233   Thumb Code    24  ml_math_func.o(.text)
    inv_compass_angle                        0x0002724b   Thumb Code   162  ml_math_func.o(.text)
    inv_get_gyro_sum_of_sqr                  0x000272ed   Thumb Code    24  ml_math_func.o(.text)
    inv_q29_mult                             0x00027305   Thumb Code    12  ml_math_func.o(.text)
    inv_q30_div                              0x00027311   Thumb Code    22  ml_math_func.o(.text)
    inv_q_shift_mult                         0x00027327   Thumb Code    12  ml_math_func.o(.text)
    inv_q_add                                0x00027333   Thumb Code    36  ml_math_func.o(.text)
    inv_vector_normalize                     0x00027357   Thumb Code   190  ml_math_func.o(.text)
    inv_q_normalize                          0x00027415   Thumb Code     4  ml_math_func.o(.text)
    quaternion_to_rotation_angle             0x00027419   Thumb Code   144  ml_math_func.o(.text)
    inv_q_rotate                             0x000274a9   Thumb Code    62  ml_math_func.o(.text)
    inv_q_multf                              0x000274e7   Thumb Code   288  ml_math_func.o(.text)
    inv_q_addf                               0x00027607   Thumb Code    66  ml_math_func.o(.text)
    inv_q_normalizef                         0x00027649   Thumb Code   174  ml_math_func.o(.text)
    inv_q_norm4                              0x000276f7   Thumb Code   126  ml_math_func.o(.text)
    inv_q_invertf                            0x00027775   Thumb Code    46  ml_math_func.o(.text)
    inv_quaternion_to_rotation               0x000277a3   Thumb Code   218  ml_math_func.o(.text)
    inv_quaternion_to_rotation_vector        0x0002787d   Thumb Code    34  ml_math_func.o(.text)
    inv_int32_to_big8                        0x0002789f   Thumb Code    20  ml_math_func.o(.text)
    inv_big8_to_int32                        0x000278b3   Thumb Code    24  ml_math_func.o(.text)
    inv_big8_to_int16                        0x000278cb   Thumb Code    12  ml_math_func.o(.text)
    inv_little8_to_int16                     0x000278d7   Thumb Code    12  ml_math_func.o(.text)
    inv_int16_to_big8                        0x000278e3   Thumb Code    12  ml_math_func.o(.text)
    inv_matrix_det_inc                       0x000278ef   Thumb Code    96  ml_math_func.o(.text)
    inv_matrix_det_incd                      0x0002794f   Thumb Code    94  ml_math_func.o(.text)
    inv_matrix_det                           0x000279ad   Thumb Code   156  ml_math_func.o(.text)
    inv_matrix_detd                          0x00027a49   Thumb Code   218  ml_math_func.o(.text)
    inv_wrap_angle                           0x00027b23   Thumb Code    36  ml_math_func.o(.text)
    inv_angle_diff                           0x00027b47   Thumb Code    62  ml_math_func.o(.text)
    inv_checksum                             0x00027b85   Thumb Code    28  ml_math_func.o(.text)
    inv_orientation_matrix_to_scalar         0x00027be9   Thumb Code    36  ml_math_func.o(.text)
    inv_convert_to_body                      0x00027c0d   Thumb Code    70  ml_math_func.o(.text)
    inv_convert_to_chip                      0x00027c53   Thumb Code    70  ml_math_func.o(.text)
    inv_convert_to_body_with_scale           0x00027c99   Thumb Code    92  ml_math_func.o(.text)
    inv_vector_norm                          0x00027cf5   Thumb Code    46  ml_math_func.o(.text)
    inv_init_biquad_filter                   0x00027d23   Thumb Code    38  ml_math_func.o(.text)
    inv_calc_state_to_match_output           0x00027d49   Thumb Code    42  ml_math_func.o(.text)
    inv_biquad_filter_process                0x00027d73   Thumb Code   100  ml_math_func.o(.text)
    inv_get_cross_product_vec                0x00027dd7   Thumb Code    86  ml_math_func.o(.text)
    mlMatrixVectorMult                       0x00027e2d   Thumb Code    50  ml_math_func.o(.text)
    inv_init_mpl                             0x00027e81   Thumb Code    94  mpl.o(.text)
    inv_get_version                          0x00027edf   Thumb Code    10  mpl.o(.text)
    inv_start_mpl                            0x00027ee9   Thumb Code    36  mpl.o(.text)
    inv_store_gaming_quaternion              0x00027f65   Thumb Code    30  results_holder.o(.text)
    inv_set_compass_correction               0x00027f83   Thumb Code    30  results_holder.o(.text)
    inv_get_compass_correction               0x00027fa1   Thumb Code    18  results_holder.o(.text)
    inv_get_large_mag_field                  0x00027fb3   Thumb Code     6  results_holder.o(.text)
    inv_set_large_mag_field                  0x00027fb9   Thumb Code     6  results_holder.o(.text)
    inv_get_acc_state                        0x00027fbf   Thumb Code     6  results_holder.o(.text)
    inv_set_acc_state                        0x00027fc5   Thumb Code     6  results_holder.o(.text)
    inv_get_motion_state                     0x00027fcb   Thumb Code    12  results_holder.o(.text)
    inv_set_motion_state                     0x00027fd7   Thumb Code    52  results_holder.o(.text)
    inv_set_local_field                      0x0002800b   Thumb Code    16  results_holder.o(.text)
    inv_get_local_field                      0x0002801b   Thumb Code    16  results_holder.o(.text)
    inv_set_mag_scale                        0x0002802b   Thumb Code    16  results_holder.o(.text)
    inv_get_mag_scale                        0x0002803b   Thumb Code    16  results_holder.o(.text)
    inv_get_gravity                          0x0002804b   Thumb Code    80  results_holder.o(.text)
    inv_get_6axis_quaternion                 0x0002809b   Thumb Code    22  results_holder.o(.text)
    inv_get_quaternion                       0x000280b1   Thumb Code    44  results_holder.o(.text)
    inv_get_quaternion_float                 0x000280dd   Thumb Code    58  results_holder.o(.text)
    inv_get_quaternion_set                   0x00028117   Thumb Code    64  results_holder.o(.text)
    inv_generate_results                     0x00028157   Thumb Code    10  results_holder.o(.text)
    inv_start_results_holder                 0x00028161   Thumb Code    20  results_holder.o(.text)
    inv_init_results_holder                  0x00028175   Thumb Code    40  results_holder.o(.text)
    inv_enable_results_holder                0x0002819d   Thumb Code    24  results_holder.o(.text)
    inv_got_accel_bias                       0x000281b5   Thumb Code     6  results_holder.o(.text)
    inv_set_accel_bias_found                 0x000281bb   Thumb Code     6  results_holder.o(.text)
    inv_got_compass_bias                     0x000281c1   Thumb Code     6  results_holder.o(.text)
    inv_set_compass_bias_found               0x000281c7   Thumb Code     6  results_holder.o(.text)
    inv_set_compass_state                    0x000281cd   Thumb Code     6  results_holder.o(.text)
    inv_get_compass_state                    0x000281d3   Thumb Code     6  results_holder.o(.text)
    inv_set_compass_bias_error               0x000281d9   Thumb Code    16  results_holder.o(.text)
    inv_get_compass_bias_error               0x000281e9   Thumb Code    16  results_holder.o(.text)
    inv_get_linear_accel                     0x000281f9   Thumb Code    62  results_holder.o(.text)
    inv_get_accel                            0x00028237   Thumb Code    22  results_holder.o(.text)
    inv_get_accel_float                      0x0002824d   Thumb Code    64  results_holder.o(.text)
    inv_get_gyro_float                       0x0002828d   Thumb Code    66  results_holder.o(.text)
    inv_set_heading_confidence_interval      0x000282cf   Thumb Code     8  results_holder.o(.text)
    inv_get_heading_confidence_interval      0x000282d7   Thumb Code     8  results_holder.o(.text)
    inv_get_linear_accel_float               0x000282df   Thumb Code    64  results_holder.o(.text)
    inv_init_start_manager                   0x00028341   Thumb Code    14  start_manager.o(.text)
    inv_unregister_mpl_start_notification    0x0002834f   Thumb Code    70  start_manager.o(.text)
    inv_register_mpl_start_notification      0x00028395   Thumb Code    28  start_manager.o(.text)
    inv_execute_mpl_start_notification       0x000283b1   Thumb Code    36  start_manager.o(.text)
    inv_init_storage_manager                 0x000283d9   Thumb Code    20  storage_manager.o(.text)
    inv_register_load_store                  0x000283ed   Thumb Code   104  storage_manager.o(.text)
    inv_get_mpl_state_size                   0x00028455   Thumb Code    10  storage_manager.o(.text)
    inv_load_mpl_states                      0x00028487   Thumb Code   150  storage_manager.o(.text)
    inv_save_mpl_states                      0x0002851d   Thumb Code   118  storage_manager.o(.text)
    dmp_load_motion_driver_firmware          0x00028599   Thumb Code    16  inv_mpu_dmp_motion_driver.o(.text)
    dmp_set_orientation                      0x000285a9   Thumb Code   260  inv_mpu_dmp_motion_driver.o(.text)
    dmp_set_gyro_bias                        0x000286ad   Thumb Code   256  inv_mpu_dmp_motion_driver.o(.text)
    dmp_set_accel_bias                       0x000287ad   Thumb Code   270  inv_mpu_dmp_motion_driver.o(.text)
    dmp_set_fifo_rate                        0x000288bb   Thumb Code    96  inv_mpu_dmp_motion_driver.o(.text)
    dmp_get_fifo_rate                        0x0002891b   Thumb Code    10  inv_mpu_dmp_motion_driver.o(.text)
    dmp_set_tap_thresh                       0x00028925   Thumb Code   430  inv_mpu_dmp_motion_driver.o(.text)
    dmp_set_tap_axes                         0x00028ad3   Thumb Code    56  inv_mpu_dmp_motion_driver.o(.text)
    dmp_set_tap_count                        0x00028b0b   Thumb Code    34  inv_mpu_dmp_motion_driver.o(.text)
    dmp_set_tap_time                         0x00028b2d   Thumb Code    32  inv_mpu_dmp_motion_driver.o(.text)
    dmp_set_tap_time_multi                   0x00028b4d   Thumb Code    32  inv_mpu_dmp_motion_driver.o(.text)
    dmp_set_shake_reject_thresh              0x00028b6d   Thumb Code    48  inv_mpu_dmp_motion_driver.o(.text)
    dmp_set_shake_reject_time                0x00028b9d   Thumb Code    32  inv_mpu_dmp_motion_driver.o(.text)
    dmp_set_shake_reject_timeout             0x00028bbd   Thumb Code    32  inv_mpu_dmp_motion_driver.o(.text)
    dmp_get_pedometer_step_count             0x00028bdd   Thumb Code    68  inv_mpu_dmp_motion_driver.o(.text)
    dmp_set_pedometer_step_count             0x00028c21   Thumb Code    38  inv_mpu_dmp_motion_driver.o(.text)
    dmp_get_pedometer_walk_time              0x00028c47   Thumb Code    74  inv_mpu_dmp_motion_driver.o(.text)
    dmp_set_pedometer_walk_time              0x00028c91   Thumb Code    44  inv_mpu_dmp_motion_driver.o(.text)
    dmp_enable_6x_lp_quat                    0x00028cbd   Thumb Code    60  inv_mpu_dmp_motion_driver.o(.text)
    dmp_enable_lp_quat                       0x00028cf9   Thumb Code    60  inv_mpu_dmp_motion_driver.o(.text)
    dmp_enable_gyro_cal                      0x00028d35   Thumb Code    62  inv_mpu_dmp_motion_driver.o(.text)
    dmp_enable_feature                       0x00028d73   Thumb Code   534  inv_mpu_dmp_motion_driver.o(.text)
    dmp_get_enabled_features                 0x00028f89   Thumb Code    10  inv_mpu_dmp_motion_driver.o(.text)
    dmp_set_interrupt_mode                   0x00028fcb   Thumb Code    76  inv_mpu_dmp_motion_driver.o(.text)
    dmp_read_fifo                            0x00029017   Thumb Code   394  inv_mpu_dmp_motion_driver.o(.text)
    dmp_register_tap_cb                      0x000291a1   Thumb Code     8  inv_mpu_dmp_motion_driver.o(.text)
    dmp_register_android_orient_cb           0x000291a9   Thumb Code     8  inv_mpu_dmp_motion_driver.o(.text)
    mpu_reg_dump                             0x000292f9   Thumb Code    72  inv_mpu.o(.text)
    mpu_read_reg                             0x00029341   Thumb Code    56  inv_mpu.o(.text)
    mpu_set_int_latched                      0x00029379   Thumb Code    92  inv_mpu.o(.text)
    mpu_set_sensors                          0x000293d5   Thumb Code   306  inv_mpu.o(.text)
    mpu_set_compass_sample_rate              0x00029507   Thumb Code    76  inv_mpu.o(.text)
    mpu_set_bypass                           0x00029553   Thumb Code   302  inv_mpu.o(.text)
    mpu_reset_fifo                           0x00029865   Thumb Code   360  inv_mpu.o(.text)
    mpu_configure_fifo                       0x000299cd   Thumb Code    90  inv_mpu.o(.text)
    mpu_set_lpf                              0x00029a27   Thumb Code   184  inv_mpu.o(.text)
    mpu_lp_accel_mode                        0x00029adf   Thumb Code   268  inv_mpu.o(.text)
    mpu_set_sample_rate                      0x00029beb   Thumb Code   140  inv_mpu.o(.text)
    mpu_set_accel_fsr                        0x00029c77   Thumb Code   110  inv_mpu.o(.text)
    mpu_set_gyro_fsr                         0x00029ce5   Thumb Code   116  inv_mpu.o(.text)
    mpu_init_inv                             0x00029d59   Thumb Code   244  inv_mpu.o(.text)
    mpu_get_gyro_reg                         0x00029e4d   Thumb Code   100  inv_mpu.o(.text)
    mpu_get_accel_reg                        0x00029eb1   Thumb Code   102  inv_mpu.o(.text)
    mpu_get_temperature                      0x00029f17   Thumb Code   134  inv_mpu.o(.text)
    mpu_read_6500_accel_bias                 0x00029f9d   Thumb Code   120  inv_mpu.o(.text)
    mpu_read_6050_accel_bias                 0x0002a015   Thumb Code   120  inv_mpu.o(.text)
    mpu_read_6500_gyro_bias                  0x0002a08d   Thumb Code   120  inv_mpu.o(.text)
    mpu_set_gyro_bias_reg                    0x0002a105   Thumb Code   138  inv_mpu.o(.text)
    mpu_set_accel_bias_6050_reg              0x0002a18f   Thumb Code   182  inv_mpu.o(.text)
    mpu_set_accel_bias_6500_reg              0x0002a245   Thumb Code   192  inv_mpu.o(.text)
    mpu_get_gyro_fsr                         0x0002a305   Thumb Code    58  inv_mpu.o(.text)
    mpu_get_accel_fsr                        0x0002a33f   Thumb Code    62  inv_mpu.o(.text)
    mpu_get_lpf                              0x0002a37d   Thumb Code    64  inv_mpu.o(.text)
    mpu_get_sample_rate                      0x0002a3bd   Thumb Code    24  inv_mpu.o(.text)
    mpu_get_compass_sample_rate              0x0002a3d5   Thumb Code    10  inv_mpu.o(.text)
    mpu_get_gyro_sens                        0x0002a3df   Thumb Code    68  inv_mpu.o(.text)
    mpu_get_accel_sens                       0x0002a423   Thumb Code    70  inv_mpu.o(.text)
    mpu_get_fifo_config                      0x0002a469   Thumb Code    10  inv_mpu.o(.text)
    mpu_get_power_state                      0x0002a473   Thumb Code    22  inv_mpu.o(.text)
    mpu_get_int_status                       0x0002a489   Thumb Code    60  inv_mpu.o(.text)
    mpu_read_fifo                            0x0002a4c5   Thumb Code   422  inv_mpu.o(.text)
    mpu_read_fifo_stream                     0x0002a66b   Thumb Code   236  inv_mpu.o(.text)
    mpu_set_int_level                        0x0002a757   Thumb Code    10  inv_mpu.o(.text)
    mpu_set_dmp_state                        0x0002b9bd   Thumb Code   118  inv_mpu.o(.text)
    mpu_run_6500_self_test                   0x0002ba33   Thumb Code   376  inv_mpu.o(.text)
    mpu_run_self_test                        0x0002bbab   Thumb Code   160  inv_mpu.o(.text)
    mpu_write_mem                            0x0002bc4b   Thumb Code   106  inv_mpu.o(.text)
    mpu_read_mem                             0x0002bcb5   Thumb Code   556  inv_mpu.o(.text)
    mpu_load_firmware                        0x0002bee1   Thumb Code   180  inv_mpu.o(.text)
    mpu_get_dmp_state                        0x0002bf95   Thumb Code    12  inv_mpu.o(.text)
    mpu_get_compass_reg                      0x0002bfa1   Thumb Code   172  inv_mpu.o(.text)
    mpu_get_compass_fsr                      0x0002c04d   Thumb Code    12  inv_mpu.o(.text)
    mpu_lp_motion_interrupt                  0x0002c059   Thumb Code   582  inv_mpu.o(.text)
    inv_get_sensor_type_accel                0x0002c355   Thumb Code    22  empl_outputs.o(.text)
    inv_get_sensor_type_gyro                 0x0002c36b   Thumb Code    22  empl_outputs.o(.text)
    inv_get_sensor_type_compass              0x0002c381   Thumb Code    22  empl_outputs.o(.text)
    inv_get_sensor_type_quat                 0x0002c397   Thumb Code    22  empl_outputs.o(.text)
    inv_get_sensor_type_heading              0x0002c3ad   Thumb Code   146  empl_outputs.o(.text)
    inv_get_sensor_type_euler                0x0002c43f   Thumb Code   438  empl_outputs.o(.text)
    inv_get_sensor_type_rot_mat              0x0002c5f5   Thumb Code    28  empl_outputs.o(.text)
    inv_enable_eMPL_outputs                  0x0002c6d7   Thumb Code    22  empl_outputs.o(.text)
    inv_disable_eMPL_outputs                 0x0002c6ed   Thumb Code    16  empl_outputs.o(.text)
    Reset_Handler                            0x0002c72d   Thumb Code     8  arm_startup_nrf52840.o(.text)
    NMI_Handler                              0x0002c735   Thumb Code     2  arm_startup_nrf52840.o(.text)
    HardFault_Handler                        0x0002c737   Thumb Code     2  arm_startup_nrf52840.o(.text)
    MemoryManagement_Handler                 0x0002c739   Thumb Code     2  arm_startup_nrf52840.o(.text)
    BusFault_Handler                         0x0002c73b   Thumb Code     2  arm_startup_nrf52840.o(.text)
    UsageFault_Handler                       0x0002c73d   Thumb Code     2  arm_startup_nrf52840.o(.text)
    SVC_Handler                              0x0002c73f   Thumb Code     2  arm_startup_nrf52840.o(.text)
    DebugMon_Handler                         0x0002c741   Thumb Code     2  arm_startup_nrf52840.o(.text)
    PendSV_Handler                           0x0002c743   Thumb Code     2  arm_startup_nrf52840.o(.text)
    SysTick_Handler                          0x0002c745   Thumb Code     2  arm_startup_nrf52840.o(.text)
    CCM_AAR_IRQHandler                       0x0002c747   Thumb Code     0  arm_startup_nrf52840.o(.text)
    COMP_LPCOMP_IRQHandler                   0x0002c747   Thumb Code     0  arm_startup_nrf52840.o(.text)
    CRYPTOCELL_IRQHandler                    0x0002c747   Thumb Code     0  arm_startup_nrf52840.o(.text)
    ECB_IRQHandler                           0x0002c747   Thumb Code     0  arm_startup_nrf52840.o(.text)
    FPU_IRQHandler                           0x0002c747   Thumb Code     0  arm_startup_nrf52840.o(.text)
    I2S_IRQHandler                           0x0002c747   Thumb Code     0  arm_startup_nrf52840.o(.text)
    MWU_IRQHandler                           0x0002c747   Thumb Code     0  arm_startup_nrf52840.o(.text)
    NFCT_IRQHandler                          0x0002c747   Thumb Code     0  arm_startup_nrf52840.o(.text)
    PDM_IRQHandler                           0x0002c747   Thumb Code     0  arm_startup_nrf52840.o(.text)
    PWM0_IRQHandler                          0x0002c747   Thumb Code     0  arm_startup_nrf52840.o(.text)
    PWM1_IRQHandler                          0x0002c747   Thumb Code     0  arm_startup_nrf52840.o(.text)
    PWM2_IRQHandler                          0x0002c747   Thumb Code     0  arm_startup_nrf52840.o(.text)
    PWM3_IRQHandler                          0x0002c747   Thumb Code     0  arm_startup_nrf52840.o(.text)
    QDEC_IRQHandler                          0x0002c747   Thumb Code     0  arm_startup_nrf52840.o(.text)
    QSPI_IRQHandler                          0x0002c747   Thumb Code     0  arm_startup_nrf52840.o(.text)
    RADIO_IRQHandler                         0x0002c747   Thumb Code     0  arm_startup_nrf52840.o(.text)
    RNG_IRQHandler                           0x0002c747   Thumb Code     0  arm_startup_nrf52840.o(.text)
    RTC0_IRQHandler                          0x0002c747   Thumb Code     0  arm_startup_nrf52840.o(.text)
    RTC2_IRQHandler                          0x0002c747   Thumb Code     0  arm_startup_nrf52840.o(.text)
    SAADC_IRQHandler                         0x0002c747   Thumb Code     0  arm_startup_nrf52840.o(.text)
    SPIM1_SPIS1_TWIM1_TWIS1_SPI1_TWI1_IRQHandler 0x0002c747   Thumb Code     0  arm_startup_nrf52840.o(.text)
    SPIM2_SPIS2_SPI2_IRQHandler              0x0002c747   Thumb Code     0  arm_startup_nrf52840.o(.text)
    SPIM3_IRQHandler                         0x0002c747   Thumb Code     0  arm_startup_nrf52840.o(.text)
    SWI1_EGU1_IRQHandler                     0x0002c747   Thumb Code     0  arm_startup_nrf52840.o(.text)
    SWI2_EGU2_IRQHandler                     0x0002c747   Thumb Code     0  arm_startup_nrf52840.o(.text)
    SWI3_EGU3_IRQHandler                     0x0002c747   Thumb Code     0  arm_startup_nrf52840.o(.text)
    SWI4_EGU4_IRQHandler                     0x0002c747   Thumb Code     0  arm_startup_nrf52840.o(.text)
    SWI5_EGU5_IRQHandler                     0x0002c747   Thumb Code     0  arm_startup_nrf52840.o(.text)
    TEMP_IRQHandler                          0x0002c747   Thumb Code     0  arm_startup_nrf52840.o(.text)
    TIMER0_IRQHandler                        0x0002c747   Thumb Code     0  arm_startup_nrf52840.o(.text)
    TIMER1_IRQHandler                        0x0002c747   Thumb Code     0  arm_startup_nrf52840.o(.text)
    TIMER2_IRQHandler                        0x0002c747   Thumb Code     0  arm_startup_nrf52840.o(.text)
    TIMER3_IRQHandler                        0x0002c747   Thumb Code     0  arm_startup_nrf52840.o(.text)
    TIMER4_IRQHandler                        0x0002c747   Thumb Code     0  arm_startup_nrf52840.o(.text)
    UARTE1_IRQHandler                        0x0002c747   Thumb Code     0  arm_startup_nrf52840.o(.text)
    USBD_IRQHandler                          0x0002c747   Thumb Code     0  arm_startup_nrf52840.o(.text)
    WDT_IRQHandler                           0x0002c747   Thumb Code     0  arm_startup_nrf52840.o(.text)
    SystemCoreClockUpdate                    0x0002c751   Thumb Code     8  system_nrf52840.o(.text)
    SystemInit                               0x0002c7f5   Thumb Code   374  system_nrf52840.o(.text)
    inv_vector_compass_cal_sensitivity       0x0002c9ad   Thumb Code     8  compass_vec_cal.o(.text)
    inv_cheap_rand                           0x0002cb9b   Thumb Code    42  compass_vec_cal.o(.text)
    inv_cheap_gaussian                       0x0002cbc5   Thumb Code   134  compass_vec_cal.o(.text)
    inv_combine_compass_data                 0x0002cc4b   Thumb Code   416  compass_vec_cal.o(.text)
    inv_set_terms                            0x0002cdeb   Thumb Code   932  compass_vec_cal.o(.text)
    inv_compute_bias                         0x0002d18f   Thumb Code  2142  compass_vec_cal.o(.text)
    inv_center_sum                           0x0002d9ed   Thumb Code  1784  compass_vec_cal.o(.text)
    inv_get_current_calibrated_compass       0x0002e0e5   Thumb Code    82  compass_vec_cal.o(.text)
    inv_add_compass_block_data               0x0002e137   Thumb Code   172  compass_vec_cal.o(.text)
    inv_check_sim                            0x0002e44f   Thumb Code   400  compass_vec_cal.o(.text)
    inv_reset_data_collection                0x0002e5df   Thumb Code    50  compass_vec_cal.o(.text)
    inv_process_compass_only_cal             0x0002e611   Thumb Code  1720  compass_vec_cal.o(.text)
    inv_generate_vector_compass_cal          0x0002ecc9   Thumb Code    62  compass_vec_cal.o(.text)
    inv_start_vector_compass_cal             0x0002ed07   Thumb Code    14  compass_vec_cal.o(.text)
    inv_stop_vector_compass_cal              0x0002ed15   Thumb Code     8  compass_vec_cal.o(.text)
    inv_init_vector_compass_cal              0x0002ed1d   Thumb Code    92  compass_vec_cal.o(.text)
    inv_enable_vector_compass_cal            0x0002ed79   Thumb Code    24  compass_vec_cal.o(.text)
    inv_disable_vector_compass_cal           0x0002ed91   Thumb Code    22  compass_vec_cal.o(.text)
    inv_init_maxmin                          0x0002ee9d   Thumb Code    78  fast_no_motion.o(.text)
    inv_fast_nomot_parameter                 0x0002eeeb   Thumb Code   332  fast_no_motion.o(.text)
    inv_fast_nomot_parameter_3rd             0x0002f037   Thumb Code   190  fast_no_motion.o(.text)
    inv_fast_nomot_set_gyro_bias             0x0002f0f5   Thumb Code   232  fast_no_motion.o(.text)
    inv_set_fast_nomot_compass_threshold     0x0002f1dd   Thumb Code     8  fast_no_motion.o(.text)
    int_set_fast_nomot_gyro_threshold        0x0002f1e5   Thumb Code     8  fast_no_motion.o(.text)
    inv_set_fast_nomot_accel_threshold       0x0002f1ed   Thumb Code     8  fast_no_motion.o(.text)
    inv_get_fast_nomot_compass_param         0x0002f1f5   Thumb Code    18  fast_no_motion.o(.text)
    inv_get_fast_nomot_accel_param           0x0002f207   Thumb Code    18  fast_no_motion.o(.text)
    inv_fast_nomot_store_data                0x0002f219   Thumb Code   140  fast_no_motion.o(.text)
    inv_fast_nomot_store_data_compass        0x0002f2a5   Thumb Code    74  fast_no_motion.o(.text)
    inv_fast_nomot_reset_data_compass        0x0002f2ef   Thumb Code    36  fast_no_motion.o(.text)
    inv_fast_nomot_get_time_elaps            0x0002f313   Thumb Code     8  fast_no_motion.o(.text)
    inv_fast_nomot_parameter_compass         0x0002f31b   Thumb Code    22  fast_no_motion.o(.text)
    inv_get_right_shift_by_rounding          0x0002f331   Thumb Code    76  fast_no_motion.o(.text)
    inv_reset_min_max_gyro_accel_statistics  0x0002f37d   Thumb Code    38  fast_no_motion.o(.text)
    inv_record_max_moment_in_no_motion_gyro  0x0002f3a3   Thumb Code    32  fast_no_motion.o(.text)
    inv_record_max_moment_in_no_motion_accel 0x0002f3c3   Thumb Code    32  fast_no_motion.o(.text)
    inv_record_min_moment_in_motion_gyro     0x0002f3e3   Thumb Code    34  fast_no_motion.o(.text)
    inv_record_min_moment_in_motion_accel    0x0002f405   Thumb Code    34  fast_no_motion.o(.text)
    inv_detect_motion_by_gyro_accel          0x0002f427   Thumb Code   214  fast_no_motion.o(.text)
    inv_sensor_data_preprocess               0x0002f4fd   Thumb Code   132  fast_no_motion.o(.text)
    inv_generate_fast_nomot                  0x0002f581   Thumb Code   504  fast_no_motion.o(.text)
    inv_set_default_number_of_samples        0x0002f779   Thumb Code    62  fast_no_motion.o(.text)
    inv_init_fast_nomot                      0x0002f7b7   Thumb Code    78  fast_no_motion.o(.text)
    inv_start_fast_nomot                     0x0002f805   Thumb Code    56  fast_no_motion.o(.text)
    inv_stop_fast_nomot                      0x0002f83d   Thumb Code    20  fast_no_motion.o(.text)
    inv_enable_fast_nomot                    0x0002f851   Thumb Code    24  fast_no_motion.o(.text)
    inv_disable_fast_nomot                   0x0002f869   Thumb Code    18  fast_no_motion.o(.text)
    inv_get_fnm_gyro_no_motion_param         0x0002f87b   Thumb Code     8  fast_no_motion.o(.text)
    inv_fnm_debug_print                      0x0002f883   Thumb Code     2  fast_no_motion.o(.text)
    inv_filter_correction_angle              0x0002f961   Thumb Code   374  fusion_9axis.o(.text)
    inv_perform_9x_fusion                    0x0002fad7   Thumb Code   894  fusion_9axis.o(.text)
    inv_process_9x_sensor_fusion_cb          0x0002fe55   Thumb Code   120  fusion_9axis.o(.text)
    inv_init_9x_fusion                       0x0002fecd   Thumb Code    52  fusion_9axis.o(.text)
    inv_9x_fusion_set_mag_fb                 0x0002ff01   Thumb Code    10  fusion_9axis.o(.text)
    inv_9x_fusion_enable_jitter_reduction    0x0002ff0b   Thumb Code    10  fusion_9axis.o(.text)
    inv_9x_fusion_use_timestamps             0x0002ff15   Thumb Code    10  fusion_9axis.o(.text)
    inv_start_9x_sensor_fusion               0x0002ff1f   Thumb Code    14  fusion_9axis.o(.text)
    inv_stop_9x_sensor_fusion                0x0002ff2d   Thumb Code     8  fusion_9axis.o(.text)
    inv_enable_9x_sensor_fusion              0x0002ff35   Thumb Code    30  fusion_9axis.o(.text)
    inv_disable_9x_sensor_fusion             0x0002ff53   Thumb Code     8  fusion_9axis.o(.text)
    inv_set_magnetic_disturbance             0x0002ff65   Thumb Code    16  mag_disturb.o(.text)
    inv_init_magnetic_disturbance            0x0002ff75   Thumb Code    68  mag_disturb.o(.text)
    MagDisturbSetDisturbance                 0x0002ffb9   Thumb Code   108  mag_disturb.o(.text)
    MagDisturbCheckSettling                  0x00030025   Thumb Code    68  mag_disturb.o(.text)
    ComputeAngleVelocity                     0x00030069   Thumb Code    94  mag_disturb.o(.text)
    inv_disable_dip_tracking                 0x000300c7   Thumb Code    10  mag_disturb.o(.text)
    Mag3ofNormalizedLong                     0x000300d1   Thumb Code    60  mag_disturb.o(.text)
    inv_track_dip_angle                      0x0003010d   Thumb Code   126  mag_disturb.o(.text)
    inv_check_magnetic_disturbance           0x0003018b   Thumb Code   758  mag_disturb.o(.text)
    inv_magnetic_disturbance_process         0x00030481   Thumb Code    50  mag_disturb.o(.text)
    inv_start_magnetic_disturbance           0x000304b3   Thumb Code    14  mag_disturb.o(.text)
    inv_stop_magnetic_disturbance            0x000304c1   Thumb Code     8  mag_disturb.o(.text)
    inv_enable_magnetic_disturbance          0x000304c9   Thumb Code    40  mag_disturb.o(.text)
    inv_disable_magnetic_disturbance         0x000304f1   Thumb Code    22  mag_disturb.o(.text)
    inv_enable_dip_tracking                  0x00030507   Thumb Code    14  mag_disturb.o(.text)
    inv_get_magnetic_disturbance_state       0x00030515   Thumb Code     8  mag_disturb.o(.text)
    inv_generate_gyro_quaternion             0x000308dd   Thumb Code   348  quaternion_supervisor.o(.text)
    inv_set_quaternion                       0x00030bef   Thumb Code    36  quaternion_supervisor.o(.text)
    inv_generate_accel_gyro_quaternion       0x00030c13   Thumb Code   468  quaternion_supervisor.o(.text)
    inv_stop_quaternion                      0x00030e2b   Thumb Code     6  quaternion_supervisor.o(.text)
    inv_init_quaternion                      0x00030e31   Thumb Code    34  quaternion_supervisor.o(.text)
    inv_start_quaternion                     0x00030e53   Thumb Code    34  quaternion_supervisor.o(.text)
    inv_enable_quaternion                    0x00030e75   Thumb Code    24  quaternion_supervisor.o(.text)
    inv_disable_quaternion                   0x00030e8d   Thumb Code    20  quaternion_supervisor.o(.text)
    inv_init_accel_maxmin                    0x00030eb9   Thumb Code    34  accel_auto_cal.o(.text)
    inv_record_good_accel_maxmin             0x00030edb   Thumb Code    58  accel_auto_cal.o(.text)
    inv_get_current_calibrated_accel         0x00030f15   Thumb Code    70  accel_auto_cal.o(.text)
    inv_sort_order_4_T                       0x00031305   Thumb Code   134  accel_auto_cal.o(.text)
    inv_init_check_sample_balance            0x0003138b   Thumb Code    36  accel_auto_cal.o(.text)
    inv_init_check_sample_balance_parameter  0x000313af   Thumb Code    28  accel_auto_cal.o(.text)
    inv_add_accel_block_data                 0x000313cb   Thumb Code   180  accel_auto_cal.o(.text)
    inv_add_vector_block_data                0x0003147f   Thumb Code   152  accel_auto_cal.o(.text)
    inv_check_sample_balance                 0x00031517   Thumb Code   372  accel_auto_cal.o(.text)
    inv_auto_calibrate                       0x000316dd   Thumb Code   828  accel_auto_cal.o(.text)
    inv_init_in_use_auto_calibration         0x00031a19   Thumb Code    92  accel_auto_cal.o(.text)
    inv_start_in_use_auto_calibration        0x00031a75   Thumb Code    14  accel_auto_cal.o(.text)
    inv_stop_in_use_auto_calibration         0x00031a83   Thumb Code     8  accel_auto_cal.o(.text)
    inv_enable_in_use_auto_calibration       0x00031a8b   Thumb Code    24  accel_auto_cal.o(.text)
    inv_disable_in_use_auto_calibration      0x00031aa3   Thumb Code    22  accel_auto_cal.o(.text)
    inv_get_accel_bias_stage                 0x00031ab9   Thumb Code     6  accel_auto_cal.o(.text)
    __aeabi_ldivmod                          0x00031afd   Thumb Code    98  ldiv.o(.text)
    __aeabi_llsl                             0x00031b5f   Thumb Code    30  llshl.o(.text)
    _ll_shift_l                              0x00031b5f   Thumb Code     0  llshl.o(.text)
    __aeabi_lasr                             0x00031b7d   Thumb Code    36  llsshr.o(.text)
    _ll_sshift_r                             0x00031b7d   Thumb Code     0  llsshr.o(.text)
    __rt_ctype_table                         0x00031ba1   Thumb Code     4  ctype_o.o(.text)
    ___aeabi_memcpy8$move                    0x00031ba9   Thumb Code     0  memmovea.o(.text)
    __aeabi_memcpy                           0x00031ba9   Thumb Code    64  memmovea.o(.text)
    __aeabi_memcpy4                          0x00031ba9   Thumb Code     0  memmovea.o(.text)
    __aeabi_memmove                          0x00031ba9   Thumb Code     0  memmovea.o(.text)
    __aeabi_memmove4                         0x00031ba9   Thumb Code     0  memmovea.o(.text)
    __aeabi_memmove8                         0x00031ba9   Thumb Code     0  memmovea.o(.text)
    __aeabi_memset                           0x00031be9   Thumb Code    14  memseta.o(.text)
    __aeabi_memset4                          0x00031be9   Thumb Code     0  memseta.o(.text)
    __aeabi_memset8                          0x00031be9   Thumb Code     0  memseta.o(.text)
    __aeabi_memclr                           0x00031bf7   Thumb Code     4  memseta.o(.text)
    __aeabi_memclr4                          0x00031bf7   Thumb Code     0  memseta.o(.text)
    __aeabi_memclr8                          0x00031bf7   Thumb Code     0  memseta.o(.text)
    _memset$wrapper                          0x00031bfb   Thumb Code    18  memseta.o(.text)
    strlen                                   0x00031c0d   Thumb Code    14  strlen.o(.text)
    memcmp                                   0x00031c1b   Thumb Code    26  memcmp.o(.text)
    __aeabi_dadd                             0x00031c35   Thumb Code   322  dadd.o(.text)
    __aeabi_dsub                             0x00031d77   Thumb Code     6  dadd.o(.text)
    __aeabi_drsub                            0x00031d7d   Thumb Code     6  dadd.o(.text)
    __aeabi_dmul                             0x00031d83   Thumb Code   228  dmul.o(.text)
    __aeabi_ddiv                             0x00031e67   Thumb Code   222  ddiv.o(.text)
    __aeabi_l2f                              0x00031f45   Thumb Code    44  ffltl.o(.text)
    __aeabi_i2d                              0x00031f71   Thumb Code    34  dflti.o(.text)
    __aeabi_f2lz                             0x00031f93   Thumb Code    66  ffixl.o(.text)
    __aeabi_d2iz                             0x00031fd5   Thumb Code    62  dfixi.o(.text)
    __aeabi_f2d                              0x00032013   Thumb Code    38  f2d.o(.text)
    __aeabi_cdcmpeq                          0x00032039   Thumb Code     0  cdcmple.o(.text)
    __aeabi_cdcmple                          0x00032039   Thumb Code    48  cdcmple.o(.text)
    __aeabi_cdrcmple                         0x00032069   Thumb Code    48  cdrcmple.o(.text)
    __aeabi_d2f                              0x00032099   Thumb Code    56  d2f.o(.text)
    __aeabi_uidiv                            0x000320d1   Thumb Code     0  uidiv.o(.text)
    __aeabi_uidivmod                         0x000320d1   Thumb Code    44  uidiv.o(.text)
    __aeabi_uldivmod                         0x000320fd   Thumb Code    98  uldiv.o(.text)
    __aeabi_llsr                             0x0003215f   Thumb Code    32  llushr.o(.text)
    _ll_ushift_r                             0x0003215f   Thumb Code     0  llushr.o(.text)
    __I$use$fp                               0x0003217f   Thumb Code     0  iusefp.o(.text)
    _float_round                             0x0003217f   Thumb Code    18  fepilogue.o(.text)
    _float_epilogue                          0x00032191   Thumb Code    92  fepilogue.o(.text)
    _double_round                            0x000321ed   Thumb Code    30  depilogue.o(.text)
    _double_epilogue                         0x0003220b   Thumb Code   156  depilogue.o(.text)
    _dsqrt                                   0x000322a7   Thumb Code   162  dsqrt.o(.text)
    __aeabi_d2ulz                            0x00032349   Thumb Code    48  dfixul.o(.text)
    __scatterload                            0x00032379   Thumb Code    28  init.o(.text)
    __scatterload_rt2                        0x00032379   Thumb Code     0  init.o(.text)
    __aeabi_ui2d                             0x0003239d   Thumb Code    26  dfltui.o(.text)
    __0printf                                0x000323b9   Thumb Code    22  printfa.o(i.__0printf)
    __1printf                                0x000323b9   Thumb Code     0  printfa.o(i.__0printf)
    __2printf                                0x000323b9   Thumb Code     0  printfa.o(i.__0printf)
    __c89printf                              0x000323b9   Thumb Code     0  printfa.o(i.__0printf)
    printf                                   0x000323b9   Thumb Code     0  printfa.o(i.__0printf)
    __0snprintf                              0x000323d9   Thumb Code    44  printfa.o(i.__0snprintf)
    __1snprintf                              0x000323d9   Thumb Code     0  printfa.o(i.__0snprintf)
    __2snprintf                              0x000323d9   Thumb Code     0  printfa.o(i.__0snprintf)
    __c89snprintf                            0x000323d9   Thumb Code     0  printfa.o(i.__0snprintf)
    snprintf                                 0x000323d9   Thumb Code     0  printfa.o(i.__0snprintf)
    __0vsprintf                              0x00032409   Thumb Code    30  printfa.o(i.__0vsprintf)
    __1vsprintf                              0x00032409   Thumb Code     0  printfa.o(i.__0vsprintf)
    __2vsprintf                              0x00032409   Thumb Code     0  printfa.o(i.__0vsprintf)
    __c89vsprintf                            0x00032409   Thumb Code     0  printfa.o(i.__0vsprintf)
    vsprintf                                 0x00032409   Thumb Code     0  printfa.o(i.__0vsprintf)
    __ARM_fpclassify                         0x0003242d   Thumb Code    48  fpclassify.o(i.__ARM_fpclassify)
    __ARM_fpclassifyf                        0x0003245d   Thumb Code    38  fpclassifyf.o(i.__ARM_fpclassifyf)
    __hardfp_acos                            0x00032489   Thumb Code   738  acos.o(i.__hardfp_acos)
    __hardfp_acosf                           0x000327e1   Thumb Code   234  acosf.o(i.__hardfp_acosf)
    __hardfp_asinf                           0x000328f9   Thumb Code   258  asinf.o(i.__hardfp_asinf)
    __hardfp_atan2f                          0x00032a25   Thumb Code   502  atan2f.o(i.__hardfp_atan2f)
    __hardfp_cos                             0x00032c79   Thumb Code   180  cos.o(i.__hardfp_cos)
    __hardfp_cosf                            0x00032d41   Thumb Code   280  cosf.o(i.__hardfp_cosf)
    __hardfp_fabs                            0x00032e91   Thumb Code    20  fabs.o(i.__hardfp_fabs)
    __hardfp_log                             0x00032ea9   Thumb Code   872  log.o(i.__hardfp_log)
    __hardfp_sinf                            0x0003326d   Thumb Code   344  sinf.o(i.__hardfp_sinf)
    __hardfp_sqrt                            0x000333fd   Thumb Code   122  sqrt.o(i.__hardfp_sqrt)
    __hardfp_sqrtf                           0x00033477   Thumb Code    58  sqrtf.o(i.__hardfp_sqrtf)
    __ieee754_rem_pio2                       0x000334b1   Thumb Code   938  rred.o(i.__ieee754_rem_pio2)
    __kernel_cos                             0x000338e9   Thumb Code   322  cos_i.o(i.__kernel_cos)
    __kernel_poly                            0x00033a59   Thumb Code   248  poly.o(i.__kernel_poly)
    __kernel_sin                             0x00033b51   Thumb Code   280  sin_i.o(i.__kernel_sin)
    __mathlib_dbl_divzero                    0x00033c81   Thumb Code    28  dunder.o(i.__mathlib_dbl_divzero)
    __mathlib_dbl_infnan                     0x00033cb1   Thumb Code    20  dunder.o(i.__mathlib_dbl_infnan)
    __mathlib_dbl_invalid                    0x00033cc9   Thumb Code    24  dunder.o(i.__mathlib_dbl_invalid)
    __mathlib_dbl_underflow                  0x00033ce9   Thumb Code    24  dunder.o(i.__mathlib_dbl_underflow)
    __mathlib_flt_infnan                     0x00033d09   Thumb Code     6  funder.o(i.__mathlib_flt_infnan)
    __mathlib_flt_infnan2                    0x00033d0f   Thumb Code     6  funder.o(i.__mathlib_flt_infnan2)
    __mathlib_flt_invalid                    0x00033d15   Thumb Code    10  funder.o(i.__mathlib_flt_invalid)
    __mathlib_flt_underflow                  0x00033d25   Thumb Code    10  funder.o(i.__mathlib_flt_underflow)
    __mathlib_rredf2                         0x00033d35   Thumb Code   316  rredf.o(i.__mathlib_rredf2)
    __scatterload_copy                       0x00033e89   Thumb Code    14  handlers.o(i.__scatterload_copy)
    __scatterload_null                       0x00033e97   Thumb Code     2  handlers.o(i.__scatterload_null)
    __scatterload_zeroinit                   0x00033e99   Thumb Code    14  handlers.o(i.__scatterload_zeroinit)
    __set_errno                              0x00033ea9   Thumb Code     6  errno.o(i.__set_errno)
    fabs                                     0x00034787   Thumb Code    24  fabs.o(i.fabs)
    free                                     0x000347a1   Thumb Code    76  malloc.o(i.free)
    malloc                                   0x000347f1   Thumb Code    92  malloc.o(i.malloc)
    sqrt                                     0x0003485d   Thumb Code   110  sqrt.o(i.sqrt)
    sqrtf                                    0x000348cb   Thumb Code    62  sqrtf.o(i.sqrtf)
    sin_lookup                               0x00034ae4   Data        1024  ml_math_func.o(.constdata)
    ml_ver                                   0x00034ee4   Data          20  mpl.o(.constdata)
    reg                                      0x00035b09   Data          42  inv_mpu.o(.constdata)
    hw                                       0x00035b34   Data          14  inv_mpu.o(.constdata)
    test                                     0x00035b44   Data          48  inv_mpu.o(.constdata)
    __ctype_table                            0x00035e00   Data         129  ctype_o.o(.constdata)
    __mathlib_zero                           0x00035eb8   Data           8  qnan.o(.constdata)
    Region$$Table$$Base                      0x00036328   Number         0  anon$$obj.o(Region$$Table)
    Region$$Table$$Limit                     0x00036348   Number         0  anon$$obj.o(Region$$Table)
    mpl_key                                  0x20002198   Data           4  main.o(.data)
    __stdout                                 0x200021d8   Data           4  retarget.o(.data)
    compass_low_pass_filter_coeff            0x200021e8   Data          20  hal_outputs.o(.data)
    SystemCoreClock                          0x20002238   Data           4  system_nrf52840.o(.data)
    __microlib_freelist                      0x2000224c   Data           4  mvars.o(.data)
    __microlib_freelist_initialised          0x20002250   Data           4  mvars.o(.data)
    twi_tx_buffer                            0x200027c4   Data          16  nrf_drv_mpu_twi.o(.bss)
    cb                                       0x20003110   Data         232  compass_vec_cal.o(.bss)
    cb_test                                  0x200031f8   Data         232  compass_vec_cal.o(.bss)
    cb_sim                                   0x200032e0   Data         232  compass_vec_cal.o(.bss)
    vc                                       0x200033c8   Data         424  compass_vec_cal.o(.bss)
    fnm                                      0x20003570   Data         608  fast_no_motion.o(.bss)
    s9axis                                   0x20003810   Data         312  fusion_9axis.o(.bss)
    mag_disturb                              0x20003948   Data         184  mag_disturb.o(.bss)
    __heap_base                              0x20003f28   Data           0  arm_startup_nrf52840.o(HEAP)
    __heap_limit                             0x20005f28   Data           0  arm_startup_nrf52840.o(HEAP)
    __initial_sp                             0x20007f28   Data           0  arm_startup_nrf52840.o(STACK)



==============================================================================

Memory Map of the image

  Image Entry point : 0x00022201

  Load Region LR_IROM1 (Base: 0x00022000, Size: 0x00014408, Max: 0x000de000, ABSOLUTE)

    Execution Region ER_IROM1 (Base: 0x00022000, Size: 0x00014348, Max: 0x000de000, ABSOLUTE)

    Base Addr    Size         Type   Attr      Idx    E Section Name        Object

    0x00022000   0x00000200   Data   RO         1396    RESET               arm_startup_nrf52840.o
    0x00022200   0x00000000   Code   RO         1853  * .ARM.Collect$$$$00000000  mc_w.l(entry.o)
    0x00022200   0x00000004   Code   RO         2269    .ARM.Collect$$$$00000001  mc_w.l(entry2.o)
    0x00022204   0x00000004   Code   RO         2272    .ARM.Collect$$$$00000004  mc_w.l(entry5.o)
    0x00022208   0x00000000   Code   RO         2274    .ARM.Collect$$$$00000008  mc_w.l(entry7b.o)
    0x00022208   0x00000000   Code   RO         2276    .ARM.Collect$$$$0000000A  mc_w.l(entry8b.o)
    0x00022208   0x00000008   Code   RO         2277    .ARM.Collect$$$$0000000B  mc_w.l(entry9a.o)
    0x00022210   0x00000000   Code   RO         2279    .ARM.Collect$$$$0000000D  mc_w.l(entry10a.o)
    0x00022210   0x00000000   Code   RO         2281    .ARM.Collect$$$$0000000F  mc_w.l(entry11a.o)
    0x00022210   0x00000004   Code   RO         2270    .ARM.Collect$$$$00002712  mc_w.l(entry2.o)
    0x00022214   0x00000764   Code   RO            4    .text               main.o
    0x00022978   0x00000720   Code   RO          342    .text               nrf_drv_twi.o
    0x00023098   0x000003a0   Code   RO          423    .text               nrf_drv_mpu_twi.o
    0x00023438   0x0000010c   Code   RO          492    .text               app_mpu.o
    0x00023544   0x000000c8   Code   RO          522    .text               nrf_drv_inv_dmp.o
    0x0002360c   0x000001b8   Code   RO          568    .text               boards.o
    0x000237c4   0x000002c4   Code   RO          597    .text               nrf_drv_clock.o
    0x00023a88   0x00000044   Code   RO          636    .text               nrf_drv_common.o
    0x00023acc   0x00000ae0   Code   RO          677    .text               nrf_drv_uart.o
    0x000245ac   0x000008f4   Code   RO          722    .text               nrf_drv_gpiote.o
    0x00024ea0   0x00000678   Code   RO          767    .text               app_timer_1.o
    0x00025518   0x00000094   Code   RO          801    .text               app_error.o
    0x000255ac   0x00000060   Code   RO          829    .text               app_error_weak.o
    0x0002560c   0x00000154   Code   RO          857    .text               app_fifo.o
    0x00025760   0x000001f0   Code   RO          884    .text               app_uart_fifo.o
    0x00025950   0x00000078   Code   RO          927    .text               app_util_platform.o
    0x000259c8   0x00000048   Code   RO          987    .text               nrf_strerror.o
    0x00025a10   0x00000020   Code   RO         1014    .text               retarget.o
    0x00025a30   0x000003b8   Code   RO         1046    .text               nrf_log_backend_serial.o
    0x00025de8   0x0000028c   Code   RO         1088    .text               nrf_log_frontend.o
    0x00026074   0x00000ab0   Code   RO         1151    .text               data_builder.o
    0x00026b24   0x000005e0   Code   RO         1187    .text               hal_outputs.o
    0x00027104   0x00000024   Code   RO         1209    .text               message_layer.o
    0x00027128   0x00000d58   Code   RO         1223    .text               ml_math_func.o
    0x00027e80   0x000000e4   Code   RO         1256    .text               mpl.o
    0x00027f64   0x000003dc   Code   RO         1274    .text               results_holder.o
    0x00028340   0x00000098   Code   RO         1288    .text               start_manager.o
    0x000283d8   0x000001c0   Code   RO         1302    .text               storage_manager.o
    0x00028598   0x00000cf0   Code   RO         1319    .text               inv_mpu_dmp_motion_driver.o
    0x00029288   0x000030cc   Code   RO         1352    .text               inv_mpu.o
    0x0002c354   0x000003d8   Code   RO         1380    .text               empl_outputs.o
    0x0002c72c   0x00000024   Code   RO         1397    .text               arm_startup_nrf52840.o
    0x0002c750   0x0000025c   Code   RO         1404    .text               system_nrf52840.o
    0x0002c9ac   0x000024f0   Code   RO         1431    .text               libmpllib.lib(compass_vec_cal.o)
    0x0002ee9c   0x00000a18   Code   RO         1521    .text               libmpllib.lib(fast_no_motion.o)
    0x0002f8b4   0x000006b0   Code   RO         1554    .text               libmpllib.lib(fusion_9axis.o)
    0x0002ff64   0x000005c0   Code   RO         1576    .text               libmpllib.lib(mag_disturb.o)
    0x00030524   0x00000994   Code   RO         1598    .text               libmpllib.lib(quaternion_supervisor.o)
    0x00030eb8   0x00000c44   Code   RO         1616    .text               libmpllib.lib(accel_auto_cal.o)
    0x00031afc   0x00000062   Code   RO         1856    .text               mc_w.l(ldiv.o)
    0x00031b5e   0x0000001e   Code   RO         1858    .text               mc_w.l(llshl.o)
    0x00031b7c   0x00000024   Code   RO         1860    .text               mc_w.l(llsshr.o)
    0x00031ba0   0x00000008   Code   RO         1862    .text               mc_w.l(ctype_o.o)
    0x00031ba8   0x00000040   Code   RO         1892    .text               mc_w.l(memmovea.o)
    0x00031be8   0x00000024   Code   RO         1894    .text               mc_w.l(memseta.o)
    0x00031c0c   0x0000000e   Code   RO         1896    .text               mc_w.l(strlen.o)
    0x00031c1a   0x0000001a   Code   RO         1898    .text               mc_w.l(memcmp.o)
    0x00031c34   0x0000014e   Code   RO         2195    .text               mf_w.l(dadd.o)
    0x00031d82   0x000000e4   Code   RO         2197    .text               mf_w.l(dmul.o)
    0x00031e66   0x000000de   Code   RO         2199    .text               mf_w.l(ddiv.o)
    0x00031f44   0x0000002c   Code   RO         2201    .text               mf_w.l(ffltl.o)
    0x00031f70   0x00000022   Code   RO         2203    .text               mf_w.l(dflti.o)
    0x00031f92   0x00000042   Code   RO         2205    .text               mf_w.l(ffixl.o)
    0x00031fd4   0x0000003e   Code   RO         2207    .text               mf_w.l(dfixi.o)
    0x00032012   0x00000026   Code   RO         2209    .text               mf_w.l(f2d.o)
    0x00032038   0x00000030   Code   RO         2211    .text               mf_w.l(cdcmple.o)
    0x00032068   0x00000030   Code   RO         2213    .text               mf_w.l(cdrcmple.o)
    0x00032098   0x00000038   Code   RO         2215    .text               mf_w.l(d2f.o)
    0x000320d0   0x0000002c   Code   RO         2283    .text               mc_w.l(uidiv.o)
    0x000320fc   0x00000062   Code   RO         2285    .text               mc_w.l(uldiv.o)
    0x0003215e   0x00000020   Code   RO         2287    .text               mc_w.l(llushr.o)
    0x0003217e   0x00000000   Code   RO         2298    .text               mc_w.l(iusefp.o)
    0x0003217e   0x0000006e   Code   RO         2299    .text               mf_w.l(fepilogue.o)
    0x000321ec   0x000000ba   Code   RO         2301    .text               mf_w.l(depilogue.o)
    0x000322a6   0x000000a2   Code   RO         2307    .text               mf_w.l(dsqrt.o)
    0x00032348   0x00000030   Code   RO         2309    .text               mf_w.l(dfixul.o)
    0x00032378   0x00000024   Code   RO         2311    .text               mc_w.l(init.o)
    0x0003239c   0x0000001a   Code   RO         2313    .text               mf_w.l(dfltui.o)
    0x000323b6   0x00000002   PAD
    0x000323b8   0x00000020   Code   RO         2139    i.__0printf         mc_w.l(printfa.o)
    0x000323d8   0x00000030   Code   RO         2140    i.__0snprintf       mc_w.l(printfa.o)
    0x00032408   0x00000024   Code   RO         2145    i.__0vsprintf       mc_w.l(printfa.o)
    0x0003242c   0x00000030   Code   RO         2234    i.__ARM_fpclassify  m_wm.l(fpclassify.o)
    0x0003245c   0x00000026   Code   RO         2236    i.__ARM_fpclassifyf  m_wm.l(fpclassifyf.o)
    0x00032482   0x00000006   PAD
    0x00032488   0x00000358   Code   RO         1645    i.__hardfp_acos     m_wm.l(acos.o)
    0x000327e0   0x00000118   Code   RO         1659    i.__hardfp_acosf    m_wm.l(acosf.o)
    0x000328f8   0x0000012c   Code   RO         1685    i.__hardfp_asinf    m_wm.l(asinf.o)
    0x00032a24   0x00000250   Code   RO         1723    i.__hardfp_atan2f   m_wm.l(atan2f.o)
    0x00032c74   0x00000004   PAD
    0x00032c78   0x000000c8   Code   RO         1741    i.__hardfp_cos      m_wm.l(cos.o)
    0x00032d40   0x00000150   Code   RO         1753    i.__hardfp_cosf     m_wm.l(cosf.o)
    0x00032e90   0x00000014   Code   RO         1765    i.__hardfp_fabs     m_wm.l(fabs.o)
    0x00032ea4   0x00000004   PAD
    0x00032ea8   0x000003c4   Code   RO         1777    i.__hardfp_log      m_wm.l(log.o)
    0x0003326c   0x00000190   Code   RO         1817    i.__hardfp_sinf     m_wm.l(sinf.o)
    0x000333fc   0x0000007a   Code   RO         1829    i.__hardfp_sqrt     m_wm.l(sqrt.o)
    0x00033476   0x0000003a   Code   RO         1841    i.__hardfp_sqrtf    m_wm.l(sqrtf.o)
    0x000334b0   0x00000438   Code   RO         2255    i.__ieee754_rem_pio2  m_wm.l(rred.o)
    0x000338e8   0x00000170   Code   RO         2217    i.__kernel_cos      m_wm.l(cos_i.o)
    0x00033a58   0x000000f8   Code   RO         2252    i.__kernel_poly     m_wm.l(poly.o)
    0x00033b50   0x00000130   Code   RO         2263    i.__kernel_sin      m_wm.l(sin_i.o)
    0x00033c80   0x00000030   Code   RO         2220    i.__mathlib_dbl_divzero  m_wm.l(dunder.o)
    0x00033cb0   0x00000014   Code   RO         2221    i.__mathlib_dbl_infnan  m_wm.l(dunder.o)
    0x00033cc4   0x00000004   PAD
    0x00033cc8   0x00000020   Code   RO         2223    i.__mathlib_dbl_invalid  m_wm.l(dunder.o)
    0x00033ce8   0x00000020   Code   RO         2226    i.__mathlib_dbl_underflow  m_wm.l(dunder.o)
    0x00033d08   0x00000006   Code   RO         2239    i.__mathlib_flt_infnan  m_wm.l(funder.o)
    0x00033d0e   0x00000006   Code   RO         2240    i.__mathlib_flt_infnan2  m_wm.l(funder.o)
    0x00033d14   0x00000010   Code   RO         2241    i.__mathlib_flt_invalid  m_wm.l(funder.o)
    0x00033d24   0x00000010   Code   RO         2244    i.__mathlib_flt_underflow  m_wm.l(funder.o)
    0x00033d34   0x00000154   Code   RO         2260    i.__mathlib_rredf2  m_wm.l(rredf.o)
    0x00033e88   0x0000000e   Code   RO         2317    i.__scatterload_copy  mc_w.l(handlers.o)
    0x00033e96   0x00000002   Code   RO         2318    i.__scatterload_null  mc_w.l(handlers.o)
    0x00033e98   0x0000000e   Code   RO         2319    i.__scatterload_zeroinit  mc_w.l(handlers.o)
    0x00033ea6   0x00000002   PAD
    0x00033ea8   0x0000000c   Code   RO         2293    i.__set_errno       mc_w.l(errno.o)
    0x00033eb4   0x00000184   Code   RO         2146    i._fp_digits        mc_w.l(printfa.o)
    0x00034038   0x000006dc   Code   RO         2147    i._printf_core      mc_w.l(printfa.o)
    0x00034714   0x00000024   Code   RO         2148    i._printf_post_padding  mc_w.l(printfa.o)
    0x00034738   0x0000002e   Code   RO         2149    i._printf_pre_padding  mc_w.l(printfa.o)
    0x00034766   0x00000016   Code   RO         2150    i._snputc           mc_w.l(printfa.o)
    0x0003477c   0x0000000a   Code   RO         2151    i._sputc            mc_w.l(printfa.o)
    0x00034786   0x00000018   Code   RO         1767    i.fabs              m_wm.l(fabs.o)
    0x0003479e   0x00000002   PAD
    0x000347a0   0x00000050   Code   RO         2167    i.free              mc_w.l(malloc.o)
    0x000347f0   0x0000006c   Code   RO         2168    i.malloc            mc_w.l(malloc.o)
    0x0003485c   0x0000006e   Code   RO         1831    i.sqrt              m_wm.l(sqrt.o)
    0x000348ca   0x0000003e   Code   RO         1843    i.sqrtf             m_wm.l(sqrtf.o)
    0x00034908   0x00000020   Data   RO            7    .constdata          main.o
    0x00034928   0x0000000c   Data   RO          347    .constdata          nrf_drv_twi.o
    0x00034934   0x00000018   Data   RO          425    .constdata          nrf_drv_mpu_twi.o
    0x0003494c   0x00000008   Data   RO          569    .constdata          boards.o
    0x00034954   0x0000004b   Data   RO          724    .constdata          nrf_drv_gpiote.o
    0x0003499f   0x00000001   PAD
    0x000349a0   0x00000020   Data   RO          886    .constdata          app_uart_fifo.o
    0x000349c0   0x00000104   Data   RO          988    .constdata          nrf_strerror.o
    0x00034ac4   0x00000020   Data   RO         1049    .constdata          nrf_log_backend_serial.o
    0x00034ae4   0x00000400   Data   RO         1224    .constdata          ml_math_func.o
    0x00034ee4   0x0000002f   Data   RO         1257    .constdata          mpl.o
    0x00034f13   0x00000bf6   Data   RO         1321    .constdata          inv_mpu_dmp_motion_driver.o
    0x00035b09   0x0000002a   Data   RO         1353    .constdata          inv_mpu.o
    0x00035b33   0x00000001   PAD
    0x00035b34   0x0000000e   Data   RO         1354    .constdata          inv_mpu.o
    0x00035b42   0x00000002   PAD
    0x00035b44   0x00000030   Data   RO         1355    .constdata          inv_mpu.o
    0x00035b74   0x00000200   Data   RO         1356    .constdata          inv_mpu.o
    0x00035d74   0x00000004   PAD
    0x00035d78   0x00000050   Data   RO         1648    .constdata          m_wm.l(acos.o)
    0x00035dc8   0x00000038   Data   RO         1780    .constdata          m_wm.l(log.o)
    0x00035e00   0x00000081   Data   RO         1863    .constdata          mc_w.l(ctype_o.o)
    0x00035e81   0x00000003   PAD
    0x00035e84   0x00000004   Data   RO         1864    .constdata          mc_w.l(ctype_o.o)
    0x00035e88   0x00000030   Data   RO         2218    .constdata          m_wm.l(cos_i.o)
    0x00035eb8   0x00000008   Data   RO         2254    .constdata          m_wm.l(qnan.o)
    0x00035ec0   0x000000c8   Data   RO         2257    .constdata          m_wm.l(rred.o)
    0x00035f88   0x00000020   Data   RO         2261    .constdata          m_wm.l(rredf.o)
    0x00035fa8   0x00000028   Data   RO         2264    .constdata          m_wm.l(sin_i.o)
    0x00035fd0   0x00000009   Data   RO            8    .conststring        main.o
    0x00035fd9   0x00000003   PAD
    0x00035fdc   0x00000307   Data   RO          989    .conststring        nrf_strerror.o
    0x000362e3   0x00000001   PAD
    0x000362e4   0x00000044   Data   RO         1153    .conststring        data_builder.o
    0x00036328   0x00000020   Data   RO         2315    Region$$Table       anon$$obj.o


    Execution Region RW_IRAM1 (Base: 0x20002198, Size: 0x00005d90, Max: 0x0003de68, ABSOLUTE)

    Base Addr    Size         Type   Attr      Idx    E Section Name        Object

    0x20002198   0x00000004   Data   RW            9    .data               main.o
    0x2000219c   0x00000012   Data   RW           10    .data               main.o
    0x200021ae   0x00000002   Data   RW          426    .data               nrf_drv_mpu_twi.o
    0x200021b0   0x00000014   Data   RW          769    .data               app_timer_1.o
    0x200021c4   0x00000010   Data   RW          887    .data               app_uart_fifo.o
    0x200021d4   0x00000004   Data   RW          928    .data               app_util_platform.o
    0x200021d8   0x00000004   Data   RW         1015    .data               retarget.o
    0x200021dc   0x0000000c   Data   RW         1050    .data               nrf_log_backend_serial.o
    0x200021e8   0x00000014   Data   RW         1189    .data               hal_outputs.o
    0x200021fc   0x00000004   Data   RW         1210    .data               message_layer.o
    0x20002200   0x00000038   Data   RW         1357    .data               inv_mpu.o
    0x20002238   0x00000004   Data   RW         1405    .data               system_nrf52840.o
    0x2000223c   0x00000010   Data   RW         1433    .data               libmpllib.lib(compass_vec_cal.o)
    0x2000224c   0x00000004   Data   RW         2289    .data               mc_w.l(mvars.o)
    0x20002250   0x00000004   Data   RW         2290    .data               mc_w.l(mvars.o)
    0x20002254   0x00000004   Data   RW         2294    .data               mc_w.l(errno.o)
    0x20002258   0x00000020   Zero   RW            5    .bss                main.o
    0x20002278   0x00000524   Zero   RW            6    .bss                main.o
    0x2000279c   0x00000028   Zero   RW          343    .bss                nrf_drv_twi.o
    0x200027c4   0x00000010   Zero   RW          424    .bss                nrf_drv_mpu_twi.o
    0x200027d4   0x00000014   Zero   RW          598    .bss                nrf_drv_clock.o
    0x200027e8   0x00000020   Zero   RW          678    .bss                nrf_drv_uart.o
    0x20002808   0x00000058   Zero   RW          723    .bss                nrf_drv_gpiote.o
    0x20002860   0x0000010c   Zero   RW          768    .bss                app_timer_1.o
    0x2000296c   0x00000020   Zero   RW          802    .bss                app_error.o
    0x2000298c   0x00000020   Zero   RW          885    .bss                app_uart_fifo.o
    0x200029ac   0x00000100   Zero   RW         1047    .bss                nrf_log_backend_serial.o
    0x20002aac   0x0000001c   Zero   RW         1089    .bss                nrf_log_frontend.o
    0x20002ac8   0x000002d8   Zero   RW         1152    .bss                data_builder.o
    0x20002da0   0x000000c4   Zero   RW         1188    .bss                hal_outputs.o
    0x20002e64   0x00000088   Zero   RW         1275    .bss                results_holder.o
    0x20002eec   0x00000054   Zero   RW         1289    .bss                start_manager.o
    0x20002f40   0x00000198   Zero   RW         1303    .bss                storage_manager.o
    0x200030d8   0x00000010   Zero   RW         1320    .bss                inv_mpu_dmp_motion_driver.o
    0x200030e8   0x00000028   Zero   RW         1381    .bss                empl_outputs.o
    0x20003110   0x00000460   Zero   RW         1432    .bss                libmpllib.lib(compass_vec_cal.o)
    0x20003570   0x000002a0   Zero   RW         1522    .bss                libmpllib.lib(fast_no_motion.o)
    0x20003810   0x00000138   Zero   RW         1555    .bss                libmpllib.lib(fusion_9axis.o)
    0x20003948   0x000000b8   Zero   RW         1577    .bss                libmpllib.lib(mag_disturb.o)
    0x20003a00   0x0000006c   Zero   RW         1599    .bss                libmpllib.lib(quaternion_supervisor.o)
    0x20003a6c   0x00000004   PAD
    0x20003a70   0x000004b8   Zero   RW         1617    .bss                libmpllib.lib(accel_auto_cal.o)
    0x20003f28   0x00002000   Zero   RW         1395    HEAP                arm_startup_nrf52840.o
    0x20005f28   0x00002000   Zero   RW         1394    STACK               arm_startup_nrf52840.o


==============================================================================

Image component sizes


      Code (inc. data)   RO Data    RW Data    ZI Data      Debug   Object Name

       148          6          0          0         32       3935   app_error.o
        96         54          0          0          0      27461   app_error_weak.o
       340          0          0          0          0       5292   app_fifo.o
       268          0          0          0          0       4015   app_mpu.o
      1656         54          0         20        268      39774   app_timer_1.o
       496         18         32         16         32      11696   app_uart_fifo.o
       120          6          0          4          0      33824   app_util_platform.o
        36          8        512          0      16384        952   arm_startup_nrf52840.o
       440         10          8          0          0       9119   boards.o
      2736         62         68          0        728      25486   data_builder.o
       984         48          0          0         40       6077   empl_outputs.o
      1504         36          0         20        196       8523   hal_outputs.o
     12492       1520        616         56          0      33530   inv_mpu.o
      3312        186       3062          0         16      17191   inv_mpu_dmp_motion_driver.o
      1892        452         41         22       1348      71124   main.o
        36          4          0          4          0       1854   message_layer.o
      3416        110       1024          0          0      17437   ml_math_func.o
       228         66         47          0          0       5282   mpl.o
       708         24          0          0         20      12969   nrf_drv_clock.o
        68          4          0          0          0      29604   nrf_drv_common.o
      2292        172         75          0         88      29426   nrf_drv_gpiote.o
       200         24          0          0          0       3349   nrf_drv_inv_dmp.o
       928         92         24          2         16      13538   nrf_drv_mpu_twi.o
      1824         38         12          0         40      59592   nrf_drv_twi.o
      2784         38          0          0         32      33283   nrf_drv_uart.o
       952         42         32         12        256       7043   nrf_log_backend_serial.o
       652          4          0          0         28       9439   nrf_log_frontend.o
        72          4       1035          0          0       2285   nrf_strerror.o
       988         16          0          0        136      10145   results_holder.o
        32          0          0          4          0       3132   retarget.o
       152          4          0          0         84       2646   start_manager.o
       448          6          0          0        408       4202   storage_manager.o
       604         66          0          4          0       2421   system_nrf52840.o

    ----------------------------------------------------------------------
     42904       3174       6632        164      20152     545646   Object Totals
         0          0         32          0          0          0   (incl. Generated)
         0          0         12          0          0          0   (incl. Padding)

    ----------------------------------------------------------------------

      Code (inc. data)   RO Data    RW Data    ZI Data      Debug   Library Member Name

      3140        190          0          0       1208       9672   accel_auto_cal.o
      9456        298          0         16       1120      19892   compass_vec_cal.o
      2584         42          0          0        672      13744   fast_no_motion.o
      1712         72          0          0        312       5636   fusion_9axis.o
      1472         48          0          0        184       7614   mag_disturb.o
      2452        130          0          0        108       5637   quaternion_supervisor.o
       856        118         80          0          0        288   acos.o
       280         46          0          0          0        176   acosf.o
       300         42          0          0          0        176   asinf.o
       592         90          0          0          0        184   atan2f.o
       200         20          0          0          0        164   cos.o
       368         46         48          0          0        200   cos_i.o
       336         56          0          0          0        136   cosf.o
       132         36          0          0          0        496   dunder.o
        44          0          0          0          0        248   fabs.o
        48          0          0          0          0        124   fpclassify.o
        38          0          0          0          0        116   fpclassifyf.o
        44         12          0          0          0        464   funder.o
       964         92         56          0          0        316   log.o
       248          0          0          0          0        152   poly.o
         0          0          8          0          0          0   qnan.o
      1080        142        200          0          0        188   rred.o
       340         24         32          0          0        160   rredf.o
       304         24         40          0          0        208   sin_i.o
       400         56          0          0          0        212   sinf.o
       232          0          0          0          0        296   sqrt.o
       120          0          0          0          0        272   sqrtf.o
         8          4        133          0          0         68   ctype_o.o
         0          0          0          0          0          0   entry.o
         0          0          0          0          0          0   entry10a.o
         0          0          0          0          0          0   entry11a.o
         8          4          0          0          0          0   entry2.o
         4          0          0          0          0          0   entry5.o
         0          0          0          0          0          0   entry7b.o
         0          0          0          0          0          0   entry8b.o
         8          4          0          0          0          0   entry9a.o
        12          6          0          4          0         68   errno.o
        30          0          0          0          0          0   handlers.o
        36          8          0          0          0         68   init.o
         0          0          0          0          0          0   iusefp.o
        98          0          0          0          0         84   ldiv.o
        30          0          0          0          0         68   llshl.o
        36          0          0          0          0         68   llsshr.o
        32          0          0          0          0         68   llushr.o
       188         20          0          0          0        160   malloc.o
        26          0          0          0          0         80   memcmp.o
        64          0          0          0          0         76   memmovea.o
        36          0          0          0          0        108   memseta.o
         0          0          0          8          0          0   mvars.o
      2374        100          0          0          0        752   printfa.o
        14          0          0          0          0         68   strlen.o
        44          0          0          0          0         80   uidiv.o
        98          0          0          0          0         92   uldiv.o
        48          0          0          0          0         68   cdcmple.o
        48          0          0          0          0         68   cdrcmple.o
        56          0          0          0          0         88   d2f.o
       334          0          0          0          0        148   dadd.o
       222          0          0          0          0        100   ddiv.o
       186          0          0          0          0        176   depilogue.o
        62          0          0          0          0         80   dfixi.o
        48          0          0          0          0         68   dfixul.o
        34          0          0          0          0         76   dflti.o
        26          0          0          0          0         76   dfltui.o
       228          0          0          0          0         96   dmul.o
       162          0          0          0          0        100   dsqrt.o
        38          0          0          0          0         68   f2d.o
       110          0          0          0          0        168   fepilogue.o
        66          0          0          0          0         76   ffixl.o
        44          0          0          0          0         92   ffltl.o

    ----------------------------------------------------------------------
     32624       1734        600         28       3608      70227   Library Totals
        24          4          3          0          4          0   (incl. Padding)

    ----------------------------------------------------------------------

      Code (inc. data)   RO Data    RW Data    ZI Data      Debug   Library Name

     20816        780          0         16       3604      62195   libmpllib.lib
      6926        804        464          0          0       4576   m_wm.l
      3146        146        133         12          0       1908   mc_w.l
      1712          0          0          0          0       1548   mf_w.l

    ----------------------------------------------------------------------
     32624       1734        600         28       3608      70227   Library Totals

    ----------------------------------------------------------------------

==============================================================================


      Code (inc. data)   RO Data    RW Data    ZI Data      Debug   

     75528       4908       7232        192      23760     602305   Grand Totals
     75528       4908       7232        192      23760     602305   ELF Image Totals
     75528       4908       7232        192          0          0   ROM Totals

==============================================================================

    Total RO  Size (Code + RO Data)                82760 (  80.82kB)
    Total RW  Size (RW Data + ZI Data)             23952 (  23.39kB)
    Total ROM Size (Code + RO Data + RW Data)      82952 (  81.01kB)

==============================================================================

